
cubemx_mouse.elf:     file format elf32-littlearm

Sections:
Idx Name          Size      VMA       LMA       File off  Algn
  0 .isr_vector   000001e4  08000000  08000000  00010000  2**0
                  CONTENTS, ALLOC, LOAD, READONLY, DATA
  1 .text         00002bf4  080001e4  080001e4  000101e4  2**2
                  CONTENTS, ALLOC, LOAD, READONLY, CODE
  2 .rodata       000000e0  08002dd8  08002dd8  00012dd8  2**2
                  CONTENTS, ALLOC, LOAD, READONLY, DATA
  3 .init_array   00000004  08002eb8  08002eb8  00012eb8  2**2
                  CONTENTS, ALLOC, LOAD, DATA
  4 .fini_array   00000004  08002ebc  08002ebc  00012ebc  2**2
                  CONTENTS, ALLOC, LOAD, DATA
  5 .data         00000070  20000000  08002ec0  00020000  2**2
                  CONTENTS, ALLOC, LOAD, DATA
  6 .bss          000001bc  20000070  08002f30  00020070  2**2
                  ALLOC
  7 ._user_heap_stack 00000604  2000022c  08002f30  0002022c  2**0
                  ALLOC
  8 .ARM.attributes 00000029  00000000  00000000  00020070  2**0
                  CONTENTS, READONLY
  9 .debug_info   0001a277  00000000  00000000  00020099  2**0
                  CONTENTS, READONLY, DEBUGGING
 10 .debug_abbrev 0000303f  00000000  00000000  0003a310  2**0
                  CONTENTS, READONLY, DEBUGGING
 11 .debug_loc    000078c3  00000000  00000000  0003d34f  2**0
                  CONTENTS, READONLY, DEBUGGING
 12 .debug_aranges 00000c78  00000000  00000000  00044c18  2**3
                  CONTENTS, READONLY, DEBUGGING
 13 .debug_ranges 00000bc8  00000000  00000000  00045890  2**3
                  CONTENTS, READONLY, DEBUGGING
 14 .debug_macro  00018bc4  00000000  00000000  00046458  2**0
                  CONTENTS, READONLY, DEBUGGING
 15 .debug_line   0000b422  00000000  00000000  0005f01c  2**0
                  CONTENTS, READONLY, DEBUGGING
 16 .debug_str    00081ecb  00000000  00000000  0006a43e  2**0
                  CONTENTS, READONLY, DEBUGGING
 17 .comment      0000007c  00000000  00000000  000ec309  2**0
                  CONTENTS, READONLY
 18 .debug_frame  000025c4  00000000  00000000  000ec388  2**2
                  CONTENTS, READONLY, DEBUGGING
 19 .stab         00000084  00000000  00000000  000ee94c  2**2
                  CONTENTS, READONLY, DEBUGGING
 20 .stabstr      0000014d  00000000  00000000  000ee9d0  2**0
                  CONTENTS, READONLY, DEBUGGING

Disassembly of section .text:

080001e4 <__do_global_dtors_aux>:
 80001e4:	b510      	push	{r4, lr}
 80001e6:	4c05      	ldr	r4, [pc, #20]	; (80001fc <__do_global_dtors_aux+0x18>)
 80001e8:	7823      	ldrb	r3, [r4, #0]
 80001ea:	b933      	cbnz	r3, 80001fa <__do_global_dtors_aux+0x16>
 80001ec:	4b04      	ldr	r3, [pc, #16]	; (8000200 <__do_global_dtors_aux+0x1c>)
 80001ee:	b113      	cbz	r3, 80001f6 <__do_global_dtors_aux+0x12>
 80001f0:	4804      	ldr	r0, [pc, #16]	; (8000204 <__do_global_dtors_aux+0x20>)
 80001f2:	f3af 8000 	nop.w
 80001f6:	2301      	movs	r3, #1
 80001f8:	7023      	strb	r3, [r4, #0]
 80001fa:	bd10      	pop	{r4, pc}
 80001fc:	20000070 	.word	0x20000070
 8000200:	00000000 	.word	0x00000000
 8000204:	08002dc0 	.word	0x08002dc0

08000208 <frame_dummy>:
 8000208:	b508      	push	{r3, lr}
 800020a:	4b03      	ldr	r3, [pc, #12]	; (8000218 <frame_dummy+0x10>)
 800020c:	b11b      	cbz	r3, 8000216 <frame_dummy+0xe>
 800020e:	4903      	ldr	r1, [pc, #12]	; (800021c <frame_dummy+0x14>)
 8000210:	4803      	ldr	r0, [pc, #12]	; (8000220 <frame_dummy+0x18>)
 8000212:	f3af 8000 	nop.w
 8000216:	bd08      	pop	{r3, pc}
 8000218:	00000000 	.word	0x00000000
 800021c:	20000074 	.word	0x20000074
 8000220:	08002dc0 	.word	0x08002dc0

08000224 <HAL_InitTick>:
  *       implementation  in user file.
  * @param TickPriority Tick interrupt priority.
  * @retval HAL status
  */
__weak HAL_StatusTypeDef HAL_InitTick(uint32_t TickPriority)
{
 8000224:	b510      	push	{r4, lr}
 8000226:	4604      	mov	r4, r0
  /* Configure the SysTick to have interrupt in 1ms time basis*/
  if (HAL_SYSTICK_Config(SystemCoreClock / (1000U / uwTickFreq)) > 0U)
 8000228:	4b0e      	ldr	r3, [pc, #56]	; (8000264 <HAL_InitTick+0x40>)
 800022a:	7818      	ldrb	r0, [r3, #0]
 800022c:	f44f 737a 	mov.w	r3, #1000	; 0x3e8
 8000230:	fbb3 f3f0 	udiv	r3, r3, r0
 8000234:	4a0c      	ldr	r2, [pc, #48]	; (8000268 <HAL_InitTick+0x44>)
 8000236:	6810      	ldr	r0, [r2, #0]
 8000238:	fbb0 f0f3 	udiv	r0, r0, r3
 800023c:	f000 f9ea 	bl	8000614 <HAL_SYSTICK_Config>
 8000240:	b968      	cbnz	r0, 800025e <HAL_InitTick+0x3a>
  {
    return HAL_ERROR;
  }

  /* Configure the SysTick IRQ priority */
  if (TickPriority < (1UL << __NVIC_PRIO_BITS))
 8000242:	2c0f      	cmp	r4, #15
 8000244:	d901      	bls.n	800024a <HAL_InitTick+0x26>
    HAL_NVIC_SetPriority(SysTick_IRQn, TickPriority, 0U);
    uwTickPrio = TickPriority;
  }
  else
  {
    return HAL_ERROR;
 8000246:	2001      	movs	r0, #1
  }

  /* Return function status */
  return HAL_OK;
}
 8000248:	bd10      	pop	{r4, pc}
    HAL_NVIC_SetPriority(SysTick_IRQn, TickPriority, 0U);
 800024a:	2200      	movs	r2, #0
 800024c:	4621      	mov	r1, r4
 800024e:	f04f 30ff 	mov.w	r0, #4294967295
 8000252:	f000 f9ad 	bl	80005b0 <HAL_NVIC_SetPriority>
    uwTickPrio = TickPriority;
 8000256:	4b03      	ldr	r3, [pc, #12]	; (8000264 <HAL_InitTick+0x40>)
 8000258:	605c      	str	r4, [r3, #4]
  return HAL_OK;
 800025a:	2000      	movs	r0, #0
 800025c:	bd10      	pop	{r4, pc}
    return HAL_ERROR;
 800025e:	2001      	movs	r0, #1
 8000260:	bd10      	pop	{r4, pc}
 8000262:	bf00      	nop
 8000264:	20000000 	.word	0x20000000
 8000268:	20000008 	.word	0x20000008

0800026c <HAL_Init>:
{
 800026c:	b508      	push	{r3, lr}
  __HAL_FLASH_PREFETCH_BUFFER_ENABLE();
 800026e:	4a07      	ldr	r2, [pc, #28]	; (800028c <HAL_Init+0x20>)
 8000270:	6813      	ldr	r3, [r2, #0]
 8000272:	f043 0310 	orr.w	r3, r3, #16
 8000276:	6013      	str	r3, [r2, #0]
  HAL_NVIC_SetPriorityGrouping(NVIC_PRIORITYGROUP_4);
 8000278:	2003      	movs	r0, #3
 800027a:	f000 f987 	bl	800058c <HAL_NVIC_SetPriorityGrouping>
  HAL_InitTick(TICK_INT_PRIORITY);
 800027e:	2000      	movs	r0, #0
 8000280:	f7ff ffd0 	bl	8000224 <HAL_InitTick>
  HAL_MspInit();
 8000284:	f001 fef4 	bl	8002070 <HAL_MspInit>
}
 8000288:	2000      	movs	r0, #0
 800028a:	bd08      	pop	{r3, pc}
 800028c:	40022000 	.word	0x40022000

08000290 <HAL_IncTick>:
  *      implementations in user file.
  * @retval None
  */
__weak void HAL_IncTick(void)
{
  uwTick += uwTickFreq;
 8000290:	4a03      	ldr	r2, [pc, #12]	; (80002a0 <HAL_IncTick+0x10>)
 8000292:	6811      	ldr	r1, [r2, #0]
 8000294:	4b03      	ldr	r3, [pc, #12]	; (80002a4 <HAL_IncTick+0x14>)
 8000296:	781b      	ldrb	r3, [r3, #0]
 8000298:	440b      	add	r3, r1
 800029a:	6013      	str	r3, [r2, #0]
 800029c:	4770      	bx	lr
 800029e:	bf00      	nop
 80002a0:	20000098 	.word	0x20000098
 80002a4:	20000000 	.word	0x20000000

080002a8 <HAL_GetTick>:
  *       implementations in user file.
  * @retval tick value
  */
__weak uint32_t HAL_GetTick(void)
{
  return uwTick;
 80002a8:	4b01      	ldr	r3, [pc, #4]	; (80002b0 <HAL_GetTick+0x8>)
 80002aa:	6818      	ldr	r0, [r3, #0]
}
 80002ac:	4770      	bx	lr
 80002ae:	bf00      	nop
 80002b0:	20000098 	.word	0x20000098

080002b4 <HAL_Delay>:
  *       implementations in user file.
  * @param Delay specifies the delay time length, in milliseconds.
  * @retval None
  */
__weak void HAL_Delay(uint32_t Delay)
{
 80002b4:	b538      	push	{r3, r4, r5, lr}
 80002b6:	4604      	mov	r4, r0
  uint32_t tickstart = HAL_GetTick();
 80002b8:	f7ff fff6 	bl	80002a8 <HAL_GetTick>
 80002bc:	4605      	mov	r5, r0
  uint32_t wait = Delay;

  /* Add a freq to guarantee minimum wait */
  if (wait < HAL_MAX_DELAY)
 80002be:	f1b4 3fff 	cmp.w	r4, #4294967295
 80002c2:	d002      	beq.n	80002ca <HAL_Delay+0x16>
  {
    wait += (uint32_t)(uwTickFreq);
 80002c4:	4b04      	ldr	r3, [pc, #16]	; (80002d8 <HAL_Delay+0x24>)
 80002c6:	781b      	ldrb	r3, [r3, #0]
 80002c8:	441c      	add	r4, r3
  }

  while ((HAL_GetTick() - tickstart) < wait)
 80002ca:	f7ff ffed 	bl	80002a8 <HAL_GetTick>
 80002ce:	1b40      	subs	r0, r0, r5
 80002d0:	4284      	cmp	r4, r0
 80002d2:	d8fa      	bhi.n	80002ca <HAL_Delay+0x16>
  {
  }
}
 80002d4:	bd38      	pop	{r3, r4, r5, pc}
 80002d6:	bf00      	nop
 80002d8:	20000000 	.word	0x20000000

080002dc <HAL_ADC_ConfigChannel>:
  * @param  hadc: ADC handle
  * @param  sConfig: Structure of ADC channel for regular group.
  * @retval HAL status
  */
HAL_StatusTypeDef HAL_ADC_ConfigChannel(ADC_HandleTypeDef* hadc, ADC_ChannelConfTypeDef* sConfig)
{ 
 80002dc:	b430      	push	{r4, r5}
 80002de:	b082      	sub	sp, #8
  HAL_StatusTypeDef tmp_hal_status = HAL_OK;
  __IO uint32_t wait_loop_index = 0U;
 80002e0:	2300      	movs	r3, #0
 80002e2:	9301      	str	r3, [sp, #4]
  assert_param(IS_ADC_CHANNEL(sConfig->Channel));
  assert_param(IS_ADC_REGULAR_RANK(sConfig->Rank));
  assert_param(IS_ADC_SAMPLE_TIME(sConfig->SamplingTime));
  
  /* Process locked */
  __HAL_LOCK(hadc);
 80002e4:	f890 3024 	ldrb.w	r3, [r0, #36]	; 0x24
 80002e8:	2b01      	cmp	r3, #1
 80002ea:	f000 808b 	beq.w	8000404 <HAL_ADC_ConfigChannel+0x128>
 80002ee:	4602      	mov	r2, r0
 80002f0:	2301      	movs	r3, #1
 80002f2:	f880 3024 	strb.w	r3, [r0, #36]	; 0x24
  
  
  /* Regular sequence configuration */
  /* For Rank 1 to 6 */
  if (sConfig->Rank < 7U)
 80002f6:	684b      	ldr	r3, [r1, #4]
 80002f8:	2b06      	cmp	r3, #6
 80002fa:	d829      	bhi.n	8000350 <HAL_ADC_ConfigChannel+0x74>
  {
    MODIFY_REG(hadc->Instance->SQR3                        ,
 80002fc:	6805      	ldr	r5, [r0, #0]
 80002fe:	6b68      	ldr	r0, [r5, #52]	; 0x34
 8000300:	eb03 0383 	add.w	r3, r3, r3, lsl #2
 8000304:	3b05      	subs	r3, #5
 8000306:	241f      	movs	r4, #31
 8000308:	409c      	lsls	r4, r3
 800030a:	ea20 0004 	bic.w	r0, r0, r4
 800030e:	680c      	ldr	r4, [r1, #0]
 8000310:	fa04 f303 	lsl.w	r3, r4, r3
 8000314:	4303      	orrs	r3, r0
 8000316:	636b      	str	r3, [r5, #52]	; 0x34
  }
  
  
  /* Channel sampling time configuration */
  /* For channels 10 to 17 */
  if (sConfig->Channel >= ADC_CHANNEL_10)
 8000318:	680b      	ldr	r3, [r1, #0]
 800031a:	2b09      	cmp	r3, #9
 800031c:	d938      	bls.n	8000390 <HAL_ADC_ConfigChannel+0xb4>
  {
    MODIFY_REG(hadc->Instance->SMPR1                             ,
 800031e:	6815      	ldr	r5, [r2, #0]
 8000320:	68e8      	ldr	r0, [r5, #12]
 8000322:	eb03 0343 	add.w	r3, r3, r3, lsl #1
 8000326:	3b1e      	subs	r3, #30
 8000328:	2407      	movs	r4, #7
 800032a:	409c      	lsls	r4, r3
 800032c:	ea20 0004 	bic.w	r0, r0, r4
 8000330:	688c      	ldr	r4, [r1, #8]
 8000332:	fa04 f303 	lsl.w	r3, r4, r3
 8000336:	4303      	orrs	r3, r0
 8000338:	60eb      	str	r3, [r5, #12]
               ADC_SMPR2(sConfig->SamplingTime, sConfig->Channel) );
  }
  
  /* If ADC1 Channel_16 or Channel_17 is selected, enable Temperature sensor  */
  /* and VREFINT measurement path.                                            */
  if ((sConfig->Channel == ADC_CHANNEL_TEMPSENSOR) ||
 800033a:	680b      	ldr	r3, [r1, #0]
 800033c:	3b10      	subs	r3, #16
 800033e:	2b01      	cmp	r3, #1
 8000340:	d934      	bls.n	80003ac <HAL_ADC_ConfigChannel+0xd0>
  HAL_StatusTypeDef tmp_hal_status = HAL_OK;
 8000342:	2000      	movs	r0, #0
      tmp_hal_status = HAL_ERROR;
    }
  }
  
  /* Process unlocked */
  __HAL_UNLOCK(hadc);
 8000344:	2300      	movs	r3, #0
 8000346:	f882 3024 	strb.w	r3, [r2, #36]	; 0x24
  
  /* Return function status */
  return tmp_hal_status;
}
 800034a:	b002      	add	sp, #8
 800034c:	bc30      	pop	{r4, r5}
 800034e:	4770      	bx	lr
  else if (sConfig->Rank < 13U)
 8000350:	2b0c      	cmp	r3, #12
 8000352:	d80e      	bhi.n	8000372 <HAL_ADC_ConfigChannel+0x96>
    MODIFY_REG(hadc->Instance->SQR2                        ,
 8000354:	6805      	ldr	r5, [r0, #0]
 8000356:	6b28      	ldr	r0, [r5, #48]	; 0x30
 8000358:	eb03 0383 	add.w	r3, r3, r3, lsl #2
 800035c:	3b23      	subs	r3, #35	; 0x23
 800035e:	241f      	movs	r4, #31
 8000360:	409c      	lsls	r4, r3
 8000362:	ea20 0004 	bic.w	r0, r0, r4
 8000366:	680c      	ldr	r4, [r1, #0]
 8000368:	fa04 f303 	lsl.w	r3, r4, r3
 800036c:	4303      	orrs	r3, r0
 800036e:	632b      	str	r3, [r5, #48]	; 0x30
 8000370:	e7d2      	b.n	8000318 <HAL_ADC_ConfigChannel+0x3c>
    MODIFY_REG(hadc->Instance->SQR1                        ,
 8000372:	6805      	ldr	r5, [r0, #0]
 8000374:	6ae8      	ldr	r0, [r5, #44]	; 0x2c
 8000376:	eb03 0383 	add.w	r3, r3, r3, lsl #2
 800037a:	3b41      	subs	r3, #65	; 0x41
 800037c:	241f      	movs	r4, #31
 800037e:	409c      	lsls	r4, r3
 8000380:	ea20 0004 	bic.w	r0, r0, r4
 8000384:	680c      	ldr	r4, [r1, #0]
 8000386:	fa04 f303 	lsl.w	r3, r4, r3
 800038a:	4303      	orrs	r3, r0
 800038c:	62eb      	str	r3, [r5, #44]	; 0x2c
 800038e:	e7c3      	b.n	8000318 <HAL_ADC_ConfigChannel+0x3c>
    MODIFY_REG(hadc->Instance->SMPR2                             ,
 8000390:	6815      	ldr	r5, [r2, #0]
 8000392:	6928      	ldr	r0, [r5, #16]
 8000394:	eb03 0343 	add.w	r3, r3, r3, lsl #1
 8000398:	2407      	movs	r4, #7
 800039a:	409c      	lsls	r4, r3
 800039c:	ea20 0004 	bic.w	r0, r0, r4
 80003a0:	688c      	ldr	r4, [r1, #8]
 80003a2:	fa04 f303 	lsl.w	r3, r4, r3
 80003a6:	4303      	orrs	r3, r0
 80003a8:	612b      	str	r3, [r5, #16]
 80003aa:	e7c6      	b.n	800033a <HAL_ADC_ConfigChannel+0x5e>
    if (hadc->Instance == ADC1)
 80003ac:	6813      	ldr	r3, [r2, #0]
 80003ae:	4816      	ldr	r0, [pc, #88]	; (8000408 <HAL_ADC_ConfigChannel+0x12c>)
 80003b0:	4283      	cmp	r3, r0
 80003b2:	d005      	beq.n	80003c0 <HAL_ADC_ConfigChannel+0xe4>
      SET_BIT(hadc->State, HAL_ADC_STATE_ERROR_CONFIG);
 80003b4:	6a93      	ldr	r3, [r2, #40]	; 0x28
 80003b6:	f043 0320 	orr.w	r3, r3, #32
 80003ba:	6293      	str	r3, [r2, #40]	; 0x28
      tmp_hal_status = HAL_ERROR;
 80003bc:	2001      	movs	r0, #1
 80003be:	e7c1      	b.n	8000344 <HAL_ADC_ConfigChannel+0x68>
      if (READ_BIT(hadc->Instance->CR2, ADC_CR2_TSVREFE) == RESET)
 80003c0:	6898      	ldr	r0, [r3, #8]
 80003c2:	f410 0f00 	tst.w	r0, #8388608	; 0x800000
 80003c6:	d11b      	bne.n	8000400 <HAL_ADC_ConfigChannel+0x124>
        SET_BIT(hadc->Instance->CR2, ADC_CR2_TSVREFE);
 80003c8:	6898      	ldr	r0, [r3, #8]
 80003ca:	f440 0000 	orr.w	r0, r0, #8388608	; 0x800000
 80003ce:	6098      	str	r0, [r3, #8]
        if ((sConfig->Channel == ADC_CHANNEL_TEMPSENSOR))
 80003d0:	680b      	ldr	r3, [r1, #0]
 80003d2:	2b10      	cmp	r3, #16
 80003d4:	d001      	beq.n	80003da <HAL_ADC_ConfigChannel+0xfe>
  HAL_StatusTypeDef tmp_hal_status = HAL_OK;
 80003d6:	2000      	movs	r0, #0
 80003d8:	e7b4      	b.n	8000344 <HAL_ADC_ConfigChannel+0x68>
          wait_loop_index = (ADC_TEMPSENSOR_DELAY_US * (SystemCoreClock / 1000000U));
 80003da:	4b0c      	ldr	r3, [pc, #48]	; (800040c <HAL_ADC_ConfigChannel+0x130>)
 80003dc:	681b      	ldr	r3, [r3, #0]
 80003de:	490c      	ldr	r1, [pc, #48]	; (8000410 <HAL_ADC_ConfigChannel+0x134>)
 80003e0:	fba1 1303 	umull	r1, r3, r1, r3
 80003e4:	0c9b      	lsrs	r3, r3, #18
 80003e6:	eb03 0383 	add.w	r3, r3, r3, lsl #2
 80003ea:	0059      	lsls	r1, r3, #1
 80003ec:	9101      	str	r1, [sp, #4]
          while(wait_loop_index != 0U)
 80003ee:	e002      	b.n	80003f6 <HAL_ADC_ConfigChannel+0x11a>
            wait_loop_index--;
 80003f0:	9b01      	ldr	r3, [sp, #4]
 80003f2:	3b01      	subs	r3, #1
 80003f4:	9301      	str	r3, [sp, #4]
          while(wait_loop_index != 0U)
 80003f6:	9b01      	ldr	r3, [sp, #4]
 80003f8:	2b00      	cmp	r3, #0
 80003fa:	d1f9      	bne.n	80003f0 <HAL_ADC_ConfigChannel+0x114>
  HAL_StatusTypeDef tmp_hal_status = HAL_OK;
 80003fc:	2000      	movs	r0, #0
 80003fe:	e7a1      	b.n	8000344 <HAL_ADC_ConfigChannel+0x68>
 8000400:	2000      	movs	r0, #0
 8000402:	e79f      	b.n	8000344 <HAL_ADC_ConfigChannel+0x68>
  __HAL_LOCK(hadc);
 8000404:	2002      	movs	r0, #2
 8000406:	e7a0      	b.n	800034a <HAL_ADC_ConfigChannel+0x6e>
 8000408:	40012400 	.word	0x40012400
 800040c:	20000008 	.word	0x20000008
 8000410:	431bde83 	.word	0x431bde83

08000414 <ADC_ConversionStop_Disable>:
  *         stopped to disable the ADC.
  * @param  hadc: ADC handle
  * @retval HAL status.
  */
HAL_StatusTypeDef ADC_ConversionStop_Disable(ADC_HandleTypeDef* hadc)
{
 8000414:	b538      	push	{r3, r4, r5, lr}
  uint32_t tickstart = 0U;
  
  /* Verification if ADC is not already disabled */
  if (ADC_IS_ENABLE(hadc) != RESET)
 8000416:	6803      	ldr	r3, [r0, #0]
 8000418:	689a      	ldr	r2, [r3, #8]
 800041a:	f012 0f01 	tst.w	r2, #1
 800041e:	d101      	bne.n	8000424 <ADC_ConversionStop_Disable+0x10>
      }
    }
  }
  
  /* Return HAL status */
  return HAL_OK;
 8000420:	2000      	movs	r0, #0
}
 8000422:	bd38      	pop	{r3, r4, r5, pc}
 8000424:	4604      	mov	r4, r0
    __HAL_ADC_DISABLE(hadc);
 8000426:	689a      	ldr	r2, [r3, #8]
 8000428:	f022 0201 	bic.w	r2, r2, #1
 800042c:	609a      	str	r2, [r3, #8]
    tickstart = HAL_GetTick();
 800042e:	f7ff ff3b 	bl	80002a8 <HAL_GetTick>
 8000432:	4605      	mov	r5, r0
    while(ADC_IS_ENABLE(hadc) != RESET)
 8000434:	6823      	ldr	r3, [r4, #0]
 8000436:	689b      	ldr	r3, [r3, #8]
 8000438:	f013 0f01 	tst.w	r3, #1
 800043c:	d00e      	beq.n	800045c <ADC_ConversionStop_Disable+0x48>
      if((HAL_GetTick() - tickstart) > ADC_DISABLE_TIMEOUT)
 800043e:	f7ff ff33 	bl	80002a8 <HAL_GetTick>
 8000442:	1b40      	subs	r0, r0, r5
 8000444:	2802      	cmp	r0, #2
 8000446:	d9f5      	bls.n	8000434 <ADC_ConversionStop_Disable+0x20>
        SET_BIT(hadc->State, HAL_ADC_STATE_ERROR_INTERNAL);
 8000448:	6aa3      	ldr	r3, [r4, #40]	; 0x28
 800044a:	f043 0310 	orr.w	r3, r3, #16
 800044e:	62a3      	str	r3, [r4, #40]	; 0x28
        SET_BIT(hadc->ErrorCode, HAL_ADC_ERROR_INTERNAL);
 8000450:	6ae3      	ldr	r3, [r4, #44]	; 0x2c
 8000452:	f043 0301 	orr.w	r3, r3, #1
 8000456:	62e3      	str	r3, [r4, #44]	; 0x2c
        return HAL_ERROR;
 8000458:	2001      	movs	r0, #1
 800045a:	bd38      	pop	{r3, r4, r5, pc}
  return HAL_OK;
 800045c:	2000      	movs	r0, #0
 800045e:	bd38      	pop	{r3, r4, r5, pc}

08000460 <HAL_ADC_Init>:
  if(hadc == NULL)
 8000460:	2800      	cmp	r0, #0
 8000462:	f000 808a 	beq.w	800057a <HAL_ADC_Init+0x11a>
{
 8000466:	b570      	push	{r4, r5, r6, lr}
 8000468:	4604      	mov	r4, r0
  if (hadc->State == HAL_ADC_STATE_RESET)
 800046a:	6a83      	ldr	r3, [r0, #40]	; 0x28
 800046c:	2b00      	cmp	r3, #0
 800046e:	d04d      	beq.n	800050c <HAL_ADC_Init+0xac>
  tmp_hal_status = ADC_ConversionStop_Disable(hadc);
 8000470:	4620      	mov	r0, r4
 8000472:	f7ff ffcf 	bl	8000414 <ADC_ConversionStop_Disable>
  if (HAL_IS_BIT_CLR(hadc->State, HAL_ADC_STATE_ERROR_INTERNAL) &&
 8000476:	6aa3      	ldr	r3, [r4, #40]	; 0x28
 8000478:	f013 0310 	ands.w	r3, r3, #16
 800047c:	d177      	bne.n	800056e <HAL_ADC_Init+0x10e>
 800047e:	2800      	cmp	r0, #0
 8000480:	d175      	bne.n	800056e <HAL_ADC_Init+0x10e>
    ADC_STATE_CLR_SET(hadc->State,
 8000482:	6aa2      	ldr	r2, [r4, #40]	; 0x28
 8000484:	f422 5288 	bic.w	r2, r2, #4352	; 0x1100
 8000488:	f022 0202 	bic.w	r2, r2, #2
 800048c:	f042 0202 	orr.w	r2, r2, #2
 8000490:	62a2      	str	r2, [r4, #40]	; 0x28
    tmp_cr2 |= (hadc->Init.DataAlign                               |
 8000492:	6865      	ldr	r5, [r4, #4]
                ADC_CFGR_EXTSEL(hadc, hadc->Init.ExternalTrigConv) |
 8000494:	6821      	ldr	r1, [r4, #0]
 8000496:	4a3a      	ldr	r2, [pc, #232]	; (8000580 <HAL_ADC_Init+0x120>)
 8000498:	4291      	cmp	r1, r2
 800049a:	d03d      	beq.n	8000518 <HAL_ADC_Init+0xb8>
 800049c:	69e2      	ldr	r2, [r4, #28]
    tmp_cr2 |= (hadc->Init.DataAlign                               |
 800049e:	432a      	orrs	r2, r5
                ADC_CR2_CONTINUOUS(hadc->Init.ContinuousConvMode)   );
 80004a0:	68e6      	ldr	r6, [r4, #12]
                ADC_CFGR_EXTSEL(hadc, hadc->Init.ExternalTrigConv) |
 80004a2:	ea42 0246 	orr.w	r2, r2, r6, lsl #1
    tmp_cr1 |= (ADC_CR1_SCAN_SET(hadc->Init.ScanConvMode));
 80004a6:	68a5      	ldr	r5, [r4, #8]
 80004a8:	f5b5 7f80 	cmp.w	r5, #256	; 0x100
 80004ac:	d03e      	beq.n	800052c <HAL_ADC_Init+0xcc>
 80004ae:	2d01      	cmp	r5, #1
 80004b0:	d039      	beq.n	8000526 <HAL_ADC_Init+0xc6>
    if (hadc->Init.DiscontinuousConvMode == ENABLE)
 80004b2:	6965      	ldr	r5, [r4, #20]
 80004b4:	2d01      	cmp	r5, #1
 80004b6:	d03c      	beq.n	8000532 <HAL_ADC_Init+0xd2>
      MODIFY_REG(hadc->Instance->CR1,
 80004b8:	684d      	ldr	r5, [r1, #4]
 80004ba:	f425 4569 	bic.w	r5, r5, #59648	; 0xe900
 80004be:	432b      	orrs	r3, r5
 80004c0:	604b      	str	r3, [r1, #4]
      MODIFY_REG(hadc->Instance->CR2,
 80004c2:	6821      	ldr	r1, [r4, #0]
 80004c4:	688d      	ldr	r5, [r1, #8]
 80004c6:	4b2f      	ldr	r3, [pc, #188]	; (8000584 <HAL_ADC_Init+0x124>)
 80004c8:	402b      	ands	r3, r5
 80004ca:	4313      	orrs	r3, r2
 80004cc:	608b      	str	r3, [r1, #8]
    if (ADC_CR1_SCAN_SET(hadc->Init.ScanConvMode) == ADC_SCAN_ENABLE)
 80004ce:	68a3      	ldr	r3, [r4, #8]
 80004d0:	f5b3 7f80 	cmp.w	r3, #256	; 0x100
 80004d4:	d03e      	beq.n	8000554 <HAL_ADC_Init+0xf4>
 80004d6:	2b01      	cmp	r3, #1
 80004d8:	d03c      	beq.n	8000554 <HAL_ADC_Init+0xf4>
  uint32_t tmp_sqr1 = 0U;
 80004da:	2300      	movs	r3, #0
    MODIFY_REG(hadc->Instance->SQR1,
 80004dc:	6825      	ldr	r5, [r4, #0]
 80004de:	6ae9      	ldr	r1, [r5, #44]	; 0x2c
 80004e0:	f421 0170 	bic.w	r1, r1, #15728640	; 0xf00000
 80004e4:	430b      	orrs	r3, r1
 80004e6:	62eb      	str	r3, [r5, #44]	; 0x2c
    if (READ_BIT(hadc->Instance->CR2, ~(ADC_CR2_ADON | ADC_CR2_DMA |
 80004e8:	6823      	ldr	r3, [r4, #0]
 80004ea:	6899      	ldr	r1, [r3, #8]
 80004ec:	4b26      	ldr	r3, [pc, #152]	; (8000588 <HAL_ADC_Init+0x128>)
 80004ee:	400b      	ands	r3, r1
 80004f0:	429a      	cmp	r2, r3
 80004f2:	d033      	beq.n	800055c <HAL_ADC_Init+0xfc>
      ADC_STATE_CLR_SET(hadc->State,
 80004f4:	6aa3      	ldr	r3, [r4, #40]	; 0x28
 80004f6:	f023 0312 	bic.w	r3, r3, #18
 80004fa:	f043 0310 	orr.w	r3, r3, #16
 80004fe:	62a3      	str	r3, [r4, #40]	; 0x28
      SET_BIT(hadc->ErrorCode, HAL_ADC_ERROR_INTERNAL);
 8000500:	6ae3      	ldr	r3, [r4, #44]	; 0x2c
 8000502:	f043 0301 	orr.w	r3, r3, #1
 8000506:	62e3      	str	r3, [r4, #44]	; 0x2c
      tmp_hal_status = HAL_ERROR;
 8000508:	2001      	movs	r0, #1
 800050a:	bd70      	pop	{r4, r5, r6, pc}
    ADC_CLEAR_ERRORCODE(hadc);
 800050c:	62c3      	str	r3, [r0, #44]	; 0x2c
    hadc->Lock = HAL_UNLOCKED;
 800050e:	f880 3024 	strb.w	r3, [r0, #36]	; 0x24
    HAL_ADC_MspInit(hadc);
 8000512:	f001 f9d1 	bl	80018b8 <HAL_ADC_MspInit>
 8000516:	e7ab      	b.n	8000470 <HAL_ADC_Init+0x10>
                ADC_CFGR_EXTSEL(hadc, hadc->Init.ExternalTrigConv) |
 8000518:	69e2      	ldr	r2, [r4, #28]
 800051a:	f5b2 2f40 	cmp.w	r2, #786432	; 0xc0000
 800051e:	d1be      	bne.n	800049e <HAL_ADC_Init+0x3e>
 8000520:	f44f 2200 	mov.w	r2, #524288	; 0x80000
 8000524:	e7bb      	b.n	800049e <HAL_ADC_Init+0x3e>
    tmp_cr1 |= (ADC_CR1_SCAN_SET(hadc->Init.ScanConvMode));
 8000526:	f44f 7380 	mov.w	r3, #256	; 0x100
 800052a:	e7c2      	b.n	80004b2 <HAL_ADC_Init+0x52>
 800052c:	f44f 7380 	mov.w	r3, #256	; 0x100
 8000530:	e7bf      	b.n	80004b2 <HAL_ADC_Init+0x52>
      if (hadc->Init.ContinuousConvMode == DISABLE)
 8000532:	b936      	cbnz	r6, 8000542 <HAL_ADC_Init+0xe2>
        SET_BIT(tmp_cr1, ADC_CR1_DISCEN                                            |
 8000534:	69a5      	ldr	r5, [r4, #24]
 8000536:	3d01      	subs	r5, #1
 8000538:	ea43 3345 	orr.w	r3, r3, r5, lsl #13
 800053c:	f443 6300 	orr.w	r3, r3, #2048	; 0x800
 8000540:	e7ba      	b.n	80004b8 <HAL_ADC_Init+0x58>
        SET_BIT(hadc->State, HAL_ADC_STATE_ERROR_CONFIG);
 8000542:	6aa5      	ldr	r5, [r4, #40]	; 0x28
 8000544:	f045 0520 	orr.w	r5, r5, #32
 8000548:	62a5      	str	r5, [r4, #40]	; 0x28
        SET_BIT(hadc->ErrorCode, HAL_ADC_ERROR_INTERNAL);
 800054a:	6ae5      	ldr	r5, [r4, #44]	; 0x2c
 800054c:	f045 0501 	orr.w	r5, r5, #1
 8000550:	62e5      	str	r5, [r4, #44]	; 0x2c
 8000552:	e7b1      	b.n	80004b8 <HAL_ADC_Init+0x58>
      tmp_sqr1 = ADC_SQR1_L_SHIFT(hadc->Init.NbrOfConversion);
 8000554:	6923      	ldr	r3, [r4, #16]
 8000556:	3b01      	subs	r3, #1
 8000558:	051b      	lsls	r3, r3, #20
 800055a:	e7bf      	b.n	80004dc <HAL_ADC_Init+0x7c>
      ADC_CLEAR_ERRORCODE(hadc);
 800055c:	2300      	movs	r3, #0
 800055e:	62e3      	str	r3, [r4, #44]	; 0x2c
      ADC_STATE_CLR_SET(hadc->State,
 8000560:	6aa3      	ldr	r3, [r4, #40]	; 0x28
 8000562:	f023 0303 	bic.w	r3, r3, #3
 8000566:	f043 0301 	orr.w	r3, r3, #1
 800056a:	62a3      	str	r3, [r4, #40]	; 0x28
 800056c:	bd70      	pop	{r4, r5, r6, pc}
    SET_BIT(hadc->State, HAL_ADC_STATE_ERROR_INTERNAL);
 800056e:	6aa3      	ldr	r3, [r4, #40]	; 0x28
 8000570:	f043 0310 	orr.w	r3, r3, #16
 8000574:	62a3      	str	r3, [r4, #40]	; 0x28
    tmp_hal_status = HAL_ERROR;
 8000576:	2001      	movs	r0, #1
 8000578:	bd70      	pop	{r4, r5, r6, pc}
    return HAL_ERROR;
 800057a:	2001      	movs	r0, #1
 800057c:	4770      	bx	lr
 800057e:	bf00      	nop
 8000580:	40013c00 	.word	0x40013c00
 8000584:	ffe1f7fd 	.word	0xffe1f7fd
 8000588:	ff1f0efe 	.word	0xff1f0efe

0800058c <HAL_NVIC_SetPriorityGrouping>:
__STATIC_INLINE void NVIC_SetPriorityGrouping(uint32_t PriorityGroup)
{
  uint32_t reg_value;
  uint32_t PriorityGroupTmp = (PriorityGroup & (uint32_t)0x07UL);             /* only values 0..7 are used          */

  reg_value  =  SCB->AIRCR;                                                   /* read old register configuration    */
 800058c:	4a07      	ldr	r2, [pc, #28]	; (80005ac <HAL_NVIC_SetPriorityGrouping+0x20>)
 800058e:	68d3      	ldr	r3, [r2, #12]
  reg_value &= ~((uint32_t)(SCB_AIRCR_VECTKEY_Msk | SCB_AIRCR_PRIGROUP_Msk)); /* clear bits to change               */
 8000590:	f423 63e0 	bic.w	r3, r3, #1792	; 0x700
 8000594:	041b      	lsls	r3, r3, #16
 8000596:	0c1b      	lsrs	r3, r3, #16
  reg_value  =  (reg_value                                   |
                ((uint32_t)0x5FAUL << SCB_AIRCR_VECTKEY_Pos) |
                (PriorityGroupTmp << 8U)                      );              /* Insert write key and priorty group */
 8000598:	0200      	lsls	r0, r0, #8
 800059a:	f400 60e0 	and.w	r0, r0, #1792	; 0x700
                ((uint32_t)0x5FAUL << SCB_AIRCR_VECTKEY_Pos) |
 800059e:	4318      	orrs	r0, r3
  reg_value  =  (reg_value                                   |
 80005a0:	f040 60bf 	orr.w	r0, r0, #100139008	; 0x5f80000
 80005a4:	f440 3000 	orr.w	r0, r0, #131072	; 0x20000
  SCB->AIRCR =  reg_value;
 80005a8:	60d0      	str	r0, [r2, #12]
 80005aa:	4770      	bx	lr
 80005ac:	e000ed00 	.word	0xe000ed00

080005b0 <HAL_NVIC_SetPriority>:
  *         This parameter can be a value between 0 and 15
  *         A lower priority value indicates a higher priority.          
  * @retval None
  */
void HAL_NVIC_SetPriority(IRQn_Type IRQn, uint32_t PreemptPriority, uint32_t SubPriority)
{ 
 80005b0:	b430      	push	{r4, r5}
  \details Reads the priority grouping field from the NVIC Interrupt Controller.
  \return                Priority grouping field (SCB->AIRCR [10:8] PRIGROUP field).
 */
__STATIC_INLINE uint32_t NVIC_GetPriorityGrouping(void)
{
  return ((uint32_t)((SCB->AIRCR & SCB_AIRCR_PRIGROUP_Msk) >> SCB_AIRCR_PRIGROUP_Pos));
 80005b2:	4b16      	ldr	r3, [pc, #88]	; (800060c <HAL_NVIC_SetPriority+0x5c>)
 80005b4:	68db      	ldr	r3, [r3, #12]
 80005b6:	f3c3 2302 	ubfx	r3, r3, #8, #3
{
  uint32_t PriorityGroupTmp = (PriorityGroup & (uint32_t)0x07UL);   /* only values 0..7 are used          */
  uint32_t PreemptPriorityBits;
  uint32_t SubPriorityBits;

  PreemptPriorityBits = ((7UL - PriorityGroupTmp) > (uint32_t)(__NVIC_PRIO_BITS)) ? (uint32_t)(__NVIC_PRIO_BITS) : (uint32_t)(7UL - PriorityGroupTmp);
 80005ba:	f1c3 0407 	rsb	r4, r3, #7
 80005be:	2c04      	cmp	r4, #4
 80005c0:	bf28      	it	cs
 80005c2:	2404      	movcs	r4, #4
  SubPriorityBits     = ((PriorityGroupTmp + (uint32_t)(__NVIC_PRIO_BITS)) < (uint32_t)7UL) ? (uint32_t)0UL : (uint32_t)((PriorityGroupTmp - 7UL) + (uint32_t)(__NVIC_PRIO_BITS));
 80005c4:	1d1d      	adds	r5, r3, #4
 80005c6:	2d06      	cmp	r5, #6
 80005c8:	d917      	bls.n	80005fa <HAL_NVIC_SetPriority+0x4a>
 80005ca:	3b03      	subs	r3, #3

  return (
           ((PreemptPriority & (uint32_t)((1UL << (PreemptPriorityBits)) - 1UL)) << SubPriorityBits) |
 80005cc:	2501      	movs	r5, #1
 80005ce:	fa05 f404 	lsl.w	r4, r5, r4
 80005d2:	3c01      	subs	r4, #1
 80005d4:	4021      	ands	r1, r4
 80005d6:	4099      	lsls	r1, r3
           ((SubPriority     & (uint32_t)((1UL << (SubPriorityBits    )) - 1UL)))
 80005d8:	fa05 f303 	lsl.w	r3, r5, r3
 80005dc:	3b01      	subs	r3, #1
 80005de:	4013      	ands	r3, r2
           ((PreemptPriority & (uint32_t)((1UL << (PreemptPriorityBits)) - 1UL)) << SubPriorityBits) |
 80005e0:	4319      	orrs	r1, r3
  if ((int32_t)(IRQn) < 0)
 80005e2:	2800      	cmp	r0, #0
 80005e4:	db0b      	blt.n	80005fe <HAL_NVIC_SetPriority+0x4e>
    NVIC->IP[((uint32_t)(int32_t)IRQn)]               = (uint8_t)((priority << (8U - __NVIC_PRIO_BITS)) & (uint32_t)0xFFUL);
 80005e6:	0109      	lsls	r1, r1, #4
 80005e8:	b2c9      	uxtb	r1, r1
 80005ea:	f100 4060 	add.w	r0, r0, #3758096384	; 0xe0000000
 80005ee:	f500 4061 	add.w	r0, r0, #57600	; 0xe100
 80005f2:	f880 1300 	strb.w	r1, [r0, #768]	; 0x300
  assert_param(IS_NVIC_PREEMPTION_PRIORITY(PreemptPriority));
  
  prioritygroup = NVIC_GetPriorityGrouping();
  
  NVIC_SetPriority(IRQn, NVIC_EncodePriority(prioritygroup, PreemptPriority, SubPriority));
}
 80005f6:	bc30      	pop	{r4, r5}
 80005f8:	4770      	bx	lr
  SubPriorityBits     = ((PriorityGroupTmp + (uint32_t)(__NVIC_PRIO_BITS)) < (uint32_t)7UL) ? (uint32_t)0UL : (uint32_t)((PriorityGroupTmp - 7UL) + (uint32_t)(__NVIC_PRIO_BITS));
 80005fa:	2300      	movs	r3, #0
 80005fc:	e7e6      	b.n	80005cc <HAL_NVIC_SetPriority+0x1c>
    SCB->SHP[(((uint32_t)(int32_t)IRQn) & 0xFUL)-4UL] = (uint8_t)((priority << (8U - __NVIC_PRIO_BITS)) & (uint32_t)0xFFUL);
 80005fe:	f000 000f 	and.w	r0, r0, #15
 8000602:	0109      	lsls	r1, r1, #4
 8000604:	b2c9      	uxtb	r1, r1
 8000606:	4b02      	ldr	r3, [pc, #8]	; (8000610 <HAL_NVIC_SetPriority+0x60>)
 8000608:	5419      	strb	r1, [r3, r0]
 800060a:	e7f4      	b.n	80005f6 <HAL_NVIC_SetPriority+0x46>
 800060c:	e000ed00 	.word	0xe000ed00
 8000610:	e000ed14 	.word	0xe000ed14

08000614 <HAL_SYSTICK_Config>:
           function <b>SysTick_Config</b> is not included. In this case, the file <b><i>device</i>.h</b>
           must contain a vendor-specific implementation of this function.
 */
__STATIC_INLINE uint32_t SysTick_Config(uint32_t ticks)
{
  if ((ticks - 1UL) > SysTick_LOAD_RELOAD_Msk)
 8000614:	3801      	subs	r0, #1
 8000616:	f1b0 7f80 	cmp.w	r0, #16777216	; 0x1000000
 800061a:	d20a      	bcs.n	8000632 <HAL_SYSTICK_Config+0x1e>
  {
    return (1UL);                                                   /* Reload value impossible */
  }

  SysTick->LOAD  = (uint32_t)(ticks - 1UL);                         /* set reload register */
 800061c:	4b06      	ldr	r3, [pc, #24]	; (8000638 <HAL_SYSTICK_Config+0x24>)
 800061e:	6058      	str	r0, [r3, #4]
    SCB->SHP[(((uint32_t)(int32_t)IRQn) & 0xFUL)-4UL] = (uint8_t)((priority << (8U - __NVIC_PRIO_BITS)) & (uint32_t)0xFFUL);
 8000620:	21f0      	movs	r1, #240	; 0xf0
 8000622:	4a06      	ldr	r2, [pc, #24]	; (800063c <HAL_SYSTICK_Config+0x28>)
 8000624:	f882 1023 	strb.w	r1, [r2, #35]	; 0x23
  NVIC_SetPriority (SysTick_IRQn, (1UL << __NVIC_PRIO_BITS) - 1UL); /* set Priority for Systick Interrupt */
  SysTick->VAL   = 0UL;                                             /* Load the SysTick Counter Value */
 8000628:	2000      	movs	r0, #0
 800062a:	6098      	str	r0, [r3, #8]
  SysTick->CTRL  = SysTick_CTRL_CLKSOURCE_Msk |
 800062c:	2207      	movs	r2, #7
 800062e:	601a      	str	r2, [r3, #0]
 8000630:	4770      	bx	lr
    return (1UL);                                                   /* Reload value impossible */
 8000632:	2001      	movs	r0, #1
  *                  - 1  Function failed.
  */
uint32_t HAL_SYSTICK_Config(uint32_t TicksNumb)
{
   return SysTick_Config(TicksNumb);
}
 8000634:	4770      	bx	lr
 8000636:	bf00      	nop
 8000638:	e000e010 	.word	0xe000e010
 800063c:	e000ed00 	.word	0xe000ed00

08000640 <HAL_SYSTICK_CLKSourceConfig>:
  */
void HAL_SYSTICK_CLKSourceConfig(uint32_t CLKSource)
{
  /* Check the parameters */
  assert_param(IS_SYSTICK_CLK_SOURCE(CLKSource));
  if (CLKSource == SYSTICK_CLKSOURCE_HCLK)
 8000640:	2804      	cmp	r0, #4
 8000642:	d005      	beq.n	8000650 <HAL_SYSTICK_CLKSourceConfig+0x10>
  {
    SysTick->CTRL |= SYSTICK_CLKSOURCE_HCLK;
  }
  else
  {
    SysTick->CTRL &= ~SYSTICK_CLKSOURCE_HCLK;
 8000644:	4a05      	ldr	r2, [pc, #20]	; (800065c <HAL_SYSTICK_CLKSourceConfig+0x1c>)
 8000646:	6813      	ldr	r3, [r2, #0]
 8000648:	f023 0304 	bic.w	r3, r3, #4
 800064c:	6013      	str	r3, [r2, #0]
 800064e:	4770      	bx	lr
    SysTick->CTRL |= SYSTICK_CLKSOURCE_HCLK;
 8000650:	4a02      	ldr	r2, [pc, #8]	; (800065c <HAL_SYSTICK_CLKSourceConfig+0x1c>)
 8000652:	6813      	ldr	r3, [r2, #0]
 8000654:	f043 0304 	orr.w	r3, r3, #4
 8000658:	6013      	str	r3, [r2, #0]
 800065a:	4770      	bx	lr
 800065c:	e000e010 	.word	0xe000e010

08000660 <HAL_SYSTICK_Callback>:
/**
  * @brief  SYSTICK callback.
  * @retval None
  */
__weak void HAL_SYSTICK_Callback(void)
{
 8000660:	4770      	bx	lr

08000662 <HAL_SYSTICK_IRQHandler>:
{
 8000662:	b508      	push	{r3, lr}
  HAL_SYSTICK_Callback();
 8000664:	f7ff fffc 	bl	8000660 <HAL_SYSTICK_Callback>
 8000668:	bd08      	pop	{r3, pc}
	...

0800066c <HAL_GPIO_Init>:
  * @param  GPIO_Init: pointer to a GPIO_InitTypeDef structure that contains
  *         the configuration information for the specified GPIO peripheral.
  * @retval None
  */
void HAL_GPIO_Init(GPIO_TypeDef  *GPIOx, GPIO_InitTypeDef *GPIO_Init)
{
 800066c:	b5f0      	push	{r4, r5, r6, r7, lr}
 800066e:	b083      	sub	sp, #12
  uint32_t position;
  uint32_t ioposition = 0x00U;
  uint32_t iocurrent = 0x00U;
  uint32_t temp = 0x00U;
  uint32_t config = 0x00U;
 8000670:	2600      	movs	r6, #0
  assert_param(IS_GPIO_ALL_INSTANCE(GPIOx));
  assert_param(IS_GPIO_PIN(GPIO_Init->Pin));
  assert_param(IS_GPIO_MODE(GPIO_Init->Mode));

  /* Configure the port pins */
  for (position = 0U; position < GPIO_NUMBER; position++)
 8000672:	4634      	mov	r4, r6
 8000674:	e079      	b.n	800076a <HAL_GPIO_Init+0xfe>
    {
      /* Check the Alternate function parameters */
      assert_param(IS_GPIO_AF_INSTANCE(GPIOx));

      /* Based on the required mode, filling config variable with MODEy[1:0] and CNFy[3:2] corresponding bits */
      switch (GPIO_Init->Mode)
 8000676:	2d00      	cmp	r5, #0
 8000678:	f000 80a9 	beq.w	80007ce <HAL_GPIO_Init+0x162>
 800067c:	2d01      	cmp	r5, #1
 800067e:	d100      	bne.n	8000682 <HAL_GPIO_Init+0x16>
      {
        /* If we are configuring the pin in OUTPUT push-pull mode */
        case GPIO_MODE_OUTPUT_PP:
          /* Check the GPIO speed parameter */
          assert_param(IS_GPIO_SPEED(GPIO_Init->Speed));
          config = GPIO_Init->Speed + GPIO_CR_CNF_GP_OUTPUT_PP;
 8000680:	68ce      	ldr	r6, [r1, #12]
          break;
      }

      /* Check if the current bit belongs to first half or last half of the pin count number
       in order to address CRH or CRL register*/
      configregister = (iocurrent < GPIO_PIN_8) ? &GPIOx->CRL     : &GPIOx->CRH;
 8000682:	2bff      	cmp	r3, #255	; 0xff
 8000684:	f200 80b7 	bhi.w	80007f6 <HAL_GPIO_Init+0x18a>
 8000688:	4686      	mov	lr, r0
      registeroffset = (iocurrent < GPIO_PIN_8) ? (position << 2U) : ((position - 8U) << 2U);
 800068a:	2bff      	cmp	r3, #255	; 0xff
 800068c:	f200 80b6 	bhi.w	80007fc <HAL_GPIO_Init+0x190>
 8000690:	00a5      	lsls	r5, r4, #2

      /* Apply the new configuration of the pin to the register */
      MODIFY_REG((*configregister), ((GPIO_CRL_MODE0 | GPIO_CRL_CNF0) << registeroffset), (config << registeroffset));
 8000692:	f8de 2000 	ldr.w	r2, [lr]
 8000696:	270f      	movs	r7, #15
 8000698:	40af      	lsls	r7, r5
 800069a:	ea22 0207 	bic.w	r2, r2, r7
 800069e:	fa06 f505 	lsl.w	r5, r6, r5
 80006a2:	432a      	orrs	r2, r5
 80006a4:	f8ce 2000 	str.w	r2, [lr]

      /*--------------------- EXTI Mode Configuration ------------------------*/
      /* Configure the External Interrupt or event for the current IO */
      if ((GPIO_Init->Mode & EXTI_MODE) == EXTI_MODE)
 80006a8:	684a      	ldr	r2, [r1, #4]
 80006aa:	f012 5f80 	tst.w	r2, #268435456	; 0x10000000
 80006ae:	d05b      	beq.n	8000768 <HAL_GPIO_Init+0xfc>
      {
        /* Enable AFIO Clock */
        __HAL_RCC_AFIO_CLK_ENABLE();
 80006b0:	4a67      	ldr	r2, [pc, #412]	; (8000850 <HAL_GPIO_Init+0x1e4>)
 80006b2:	6995      	ldr	r5, [r2, #24]
 80006b4:	f045 0501 	orr.w	r5, r5, #1
 80006b8:	6195      	str	r5, [r2, #24]
 80006ba:	6992      	ldr	r2, [r2, #24]
 80006bc:	f002 0201 	and.w	r2, r2, #1
 80006c0:	9201      	str	r2, [sp, #4]
 80006c2:	9a01      	ldr	r2, [sp, #4]
        temp = AFIO->EXTICR[position >> 2U];
 80006c4:	08a2      	lsrs	r2, r4, #2
 80006c6:	1c97      	adds	r7, r2, #2
 80006c8:	4d62      	ldr	r5, [pc, #392]	; (8000854 <HAL_GPIO_Init+0x1e8>)
 80006ca:	f855 5027 	ldr.w	r5, [r5, r7, lsl #2]
        CLEAR_BIT(temp, (0x0FU) << (4U * (position & 0x03U)));
 80006ce:	f004 0703 	and.w	r7, r4, #3
 80006d2:	ea4f 0e87 	mov.w	lr, r7, lsl #2
 80006d6:	270f      	movs	r7, #15
 80006d8:	fa07 f70e 	lsl.w	r7, r7, lr
 80006dc:	ea25 0507 	bic.w	r5, r5, r7
        SET_BIT(temp, (GPIO_GET_INDEX(GPIOx)) << (4U * (position & 0x03U)));
 80006e0:	4f5d      	ldr	r7, [pc, #372]	; (8000858 <HAL_GPIO_Init+0x1ec>)
 80006e2:	42b8      	cmp	r0, r7
 80006e4:	f000 8090 	beq.w	8000808 <HAL_GPIO_Init+0x19c>
 80006e8:	f507 6780 	add.w	r7, r7, #1024	; 0x400
 80006ec:	42b8      	cmp	r0, r7
 80006ee:	f000 808d 	beq.w	800080c <HAL_GPIO_Init+0x1a0>
 80006f2:	f507 6780 	add.w	r7, r7, #1024	; 0x400
 80006f6:	42b8      	cmp	r0, r7
 80006f8:	f000 808a 	beq.w	8000810 <HAL_GPIO_Init+0x1a4>
 80006fc:	f507 6780 	add.w	r7, r7, #1024	; 0x400
 8000700:	42b8      	cmp	r0, r7
 8000702:	f000 8087 	beq.w	8000814 <HAL_GPIO_Init+0x1a8>
 8000706:	f507 6780 	add.w	r7, r7, #1024	; 0x400
 800070a:	42b8      	cmp	r0, r7
 800070c:	f000 8084 	beq.w	8000818 <HAL_GPIO_Init+0x1ac>
 8000710:	f507 6780 	add.w	r7, r7, #1024	; 0x400
 8000714:	42b8      	cmp	r0, r7
 8000716:	d075      	beq.n	8000804 <HAL_GPIO_Init+0x198>
 8000718:	2706      	movs	r7, #6
 800071a:	fa07 f70e 	lsl.w	r7, r7, lr
 800071e:	433d      	orrs	r5, r7
        AFIO->EXTICR[position >> 2U] = temp;
 8000720:	3202      	adds	r2, #2
 8000722:	4f4c      	ldr	r7, [pc, #304]	; (8000854 <HAL_GPIO_Init+0x1e8>)
 8000724:	f847 5022 	str.w	r5, [r7, r2, lsl #2]


        /* Configure the interrupt mask */
        if ((GPIO_Init->Mode & GPIO_MODE_IT) == GPIO_MODE_IT)
 8000728:	684a      	ldr	r2, [r1, #4]
 800072a:	f412 3f80 	tst.w	r2, #65536	; 0x10000
 800072e:	d075      	beq.n	800081c <HAL_GPIO_Init+0x1b0>
        {
          SET_BIT(EXTI->IMR, iocurrent);
 8000730:	4d4a      	ldr	r5, [pc, #296]	; (800085c <HAL_GPIO_Init+0x1f0>)
 8000732:	682a      	ldr	r2, [r5, #0]
 8000734:	431a      	orrs	r2, r3
 8000736:	602a      	str	r2, [r5, #0]
        {
          CLEAR_BIT(EXTI->IMR, iocurrent);
        }

        /* Configure the event mask */
        if ((GPIO_Init->Mode & GPIO_MODE_EVT) == GPIO_MODE_EVT)
 8000738:	684a      	ldr	r2, [r1, #4]
 800073a:	f412 3f00 	tst.w	r2, #131072	; 0x20000
 800073e:	d073      	beq.n	8000828 <HAL_GPIO_Init+0x1bc>
        {
          SET_BIT(EXTI->EMR, iocurrent);
 8000740:	4d46      	ldr	r5, [pc, #280]	; (800085c <HAL_GPIO_Init+0x1f0>)
 8000742:	686a      	ldr	r2, [r5, #4]
 8000744:	431a      	orrs	r2, r3
 8000746:	606a      	str	r2, [r5, #4]
        {
          CLEAR_BIT(EXTI->EMR, iocurrent);
        }

        /* Enable or disable the rising trigger */
        if ((GPIO_Init->Mode & RISING_EDGE) == RISING_EDGE)
 8000748:	684a      	ldr	r2, [r1, #4]
 800074a:	f412 1f80 	tst.w	r2, #1048576	; 0x100000
 800074e:	d071      	beq.n	8000834 <HAL_GPIO_Init+0x1c8>
        {
          SET_BIT(EXTI->RTSR, iocurrent);
 8000750:	4d42      	ldr	r5, [pc, #264]	; (800085c <HAL_GPIO_Init+0x1f0>)
 8000752:	68aa      	ldr	r2, [r5, #8]
 8000754:	431a      	orrs	r2, r3
 8000756:	60aa      	str	r2, [r5, #8]
        {
          CLEAR_BIT(EXTI->RTSR, iocurrent);
        }

        /* Enable or disable the falling trigger */
        if ((GPIO_Init->Mode & FALLING_EDGE) == FALLING_EDGE)
 8000758:	684a      	ldr	r2, [r1, #4]
 800075a:	f412 1f00 	tst.w	r2, #2097152	; 0x200000
 800075e:	d06f      	beq.n	8000840 <HAL_GPIO_Init+0x1d4>
        {
          SET_BIT(EXTI->FTSR, iocurrent);
 8000760:	4d3e      	ldr	r5, [pc, #248]	; (800085c <HAL_GPIO_Init+0x1f0>)
 8000762:	68ea      	ldr	r2, [r5, #12]
 8000764:	4313      	orrs	r3, r2
 8000766:	60eb      	str	r3, [r5, #12]
  for (position = 0U; position < GPIO_NUMBER; position++)
 8000768:	3401      	adds	r4, #1
 800076a:	2c0f      	cmp	r4, #15
 800076c:	d86e      	bhi.n	800084c <HAL_GPIO_Init+0x1e0>
    ioposition = (0x01U << position);
 800076e:	2201      	movs	r2, #1
 8000770:	40a2      	lsls	r2, r4
    iocurrent = (uint32_t)(GPIO_Init->Pin) & ioposition;
 8000772:	680b      	ldr	r3, [r1, #0]
 8000774:	4013      	ands	r3, r2
    if (iocurrent == ioposition)
 8000776:	429a      	cmp	r2, r3
 8000778:	d1f6      	bne.n	8000768 <HAL_GPIO_Init+0xfc>
      switch (GPIO_Init->Mode)
 800077a:	684d      	ldr	r5, [r1, #4]
 800077c:	2d12      	cmp	r5, #18
 800077e:	d030      	beq.n	80007e2 <HAL_GPIO_Init+0x176>
 8000780:	d80b      	bhi.n	800079a <HAL_GPIO_Init+0x12e>
 8000782:	2d02      	cmp	r5, #2
 8000784:	d02a      	beq.n	80007dc <HAL_GPIO_Init+0x170>
 8000786:	f67f af76 	bls.w	8000676 <HAL_GPIO_Init+0xa>
 800078a:	2d03      	cmp	r5, #3
 800078c:	d02f      	beq.n	80007ee <HAL_GPIO_Init+0x182>
 800078e:	2d11      	cmp	r5, #17
 8000790:	f47f af77 	bne.w	8000682 <HAL_GPIO_Init+0x16>
          config = GPIO_Init->Speed + GPIO_CR_CNF_GP_OUTPUT_OD;
 8000794:	68ce      	ldr	r6, [r1, #12]
 8000796:	3604      	adds	r6, #4
          break;
 8000798:	e773      	b.n	8000682 <HAL_GPIO_Init+0x16>
      switch (GPIO_Init->Mode)
 800079a:	4f31      	ldr	r7, [pc, #196]	; (8000860 <HAL_GPIO_Init+0x1f4>)
 800079c:	42bd      	cmp	r5, r7
 800079e:	d016      	beq.n	80007ce <HAL_GPIO_Init+0x162>
 80007a0:	d90c      	bls.n	80007bc <HAL_GPIO_Init+0x150>
 80007a2:	4f30      	ldr	r7, [pc, #192]	; (8000864 <HAL_GPIO_Init+0x1f8>)
 80007a4:	42bd      	cmp	r5, r7
 80007a6:	d012      	beq.n	80007ce <HAL_GPIO_Init+0x162>
 80007a8:	f507 3780 	add.w	r7, r7, #65536	; 0x10000
 80007ac:	42bd      	cmp	r5, r7
 80007ae:	d00e      	beq.n	80007ce <HAL_GPIO_Init+0x162>
 80007b0:	f5a7 1780 	sub.w	r7, r7, #1048576	; 0x100000
 80007b4:	42bd      	cmp	r5, r7
 80007b6:	f47f af64 	bne.w	8000682 <HAL_GPIO_Init+0x16>
 80007ba:	e008      	b.n	80007ce <HAL_GPIO_Init+0x162>
 80007bc:	f5a7 1780 	sub.w	r7, r7, #1048576	; 0x100000
 80007c0:	42bd      	cmp	r5, r7
 80007c2:	d004      	beq.n	80007ce <HAL_GPIO_Init+0x162>
 80007c4:	f507 3780 	add.w	r7, r7, #65536	; 0x10000
 80007c8:	42bd      	cmp	r5, r7
 80007ca:	f47f af5a 	bne.w	8000682 <HAL_GPIO_Init+0x16>
          if (GPIO_Init->Pull == GPIO_NOPULL)
 80007ce:	688d      	ldr	r5, [r1, #8]
 80007d0:	b17d      	cbz	r5, 80007f2 <HAL_GPIO_Init+0x186>
          else if (GPIO_Init->Pull == GPIO_PULLUP)
 80007d2:	2d01      	cmp	r5, #1
 80007d4:	d008      	beq.n	80007e8 <HAL_GPIO_Init+0x17c>
            GPIOx->BRR = ioposition;
 80007d6:	6142      	str	r2, [r0, #20]
            config = GPIO_CR_MODE_INPUT + GPIO_CR_CNF_INPUT_PU_PD;
 80007d8:	2608      	movs	r6, #8
 80007da:	e752      	b.n	8000682 <HAL_GPIO_Init+0x16>
          config = GPIO_Init->Speed + GPIO_CR_CNF_AF_OUTPUT_PP;
 80007dc:	68ce      	ldr	r6, [r1, #12]
 80007de:	3608      	adds	r6, #8
          break;
 80007e0:	e74f      	b.n	8000682 <HAL_GPIO_Init+0x16>
          config = GPIO_Init->Speed + GPIO_CR_CNF_AF_OUTPUT_OD;
 80007e2:	68ce      	ldr	r6, [r1, #12]
 80007e4:	360c      	adds	r6, #12
          break;
 80007e6:	e74c      	b.n	8000682 <HAL_GPIO_Init+0x16>
            GPIOx->BSRR = ioposition;
 80007e8:	6102      	str	r2, [r0, #16]
            config = GPIO_CR_MODE_INPUT + GPIO_CR_CNF_INPUT_PU_PD;
 80007ea:	2608      	movs	r6, #8
 80007ec:	e749      	b.n	8000682 <HAL_GPIO_Init+0x16>
          config = GPIO_CR_MODE_INPUT + GPIO_CR_CNF_ANALOG;
 80007ee:	2600      	movs	r6, #0
 80007f0:	e747      	b.n	8000682 <HAL_GPIO_Init+0x16>
            config = GPIO_CR_MODE_INPUT + GPIO_CR_CNF_INPUT_FLOATING;
 80007f2:	2604      	movs	r6, #4
 80007f4:	e745      	b.n	8000682 <HAL_GPIO_Init+0x16>
      configregister = (iocurrent < GPIO_PIN_8) ? &GPIOx->CRL     : &GPIOx->CRH;
 80007f6:	f100 0e04 	add.w	lr, r0, #4
 80007fa:	e746      	b.n	800068a <HAL_GPIO_Init+0x1e>
      registeroffset = (iocurrent < GPIO_PIN_8) ? (position << 2U) : ((position - 8U) << 2U);
 80007fc:	f1a4 0508 	sub.w	r5, r4, #8
 8000800:	00ad      	lsls	r5, r5, #2
 8000802:	e746      	b.n	8000692 <HAL_GPIO_Init+0x26>
        SET_BIT(temp, (GPIO_GET_INDEX(GPIOx)) << (4U * (position & 0x03U)));
 8000804:	2705      	movs	r7, #5
 8000806:	e788      	b.n	800071a <HAL_GPIO_Init+0xae>
 8000808:	2700      	movs	r7, #0
 800080a:	e786      	b.n	800071a <HAL_GPIO_Init+0xae>
 800080c:	2701      	movs	r7, #1
 800080e:	e784      	b.n	800071a <HAL_GPIO_Init+0xae>
 8000810:	2702      	movs	r7, #2
 8000812:	e782      	b.n	800071a <HAL_GPIO_Init+0xae>
 8000814:	2703      	movs	r7, #3
 8000816:	e780      	b.n	800071a <HAL_GPIO_Init+0xae>
 8000818:	2704      	movs	r7, #4
 800081a:	e77e      	b.n	800071a <HAL_GPIO_Init+0xae>
          CLEAR_BIT(EXTI->IMR, iocurrent);
 800081c:	4d0f      	ldr	r5, [pc, #60]	; (800085c <HAL_GPIO_Init+0x1f0>)
 800081e:	682a      	ldr	r2, [r5, #0]
 8000820:	ea22 0203 	bic.w	r2, r2, r3
 8000824:	602a      	str	r2, [r5, #0]
 8000826:	e787      	b.n	8000738 <HAL_GPIO_Init+0xcc>
          CLEAR_BIT(EXTI->EMR, iocurrent);
 8000828:	4d0c      	ldr	r5, [pc, #48]	; (800085c <HAL_GPIO_Init+0x1f0>)
 800082a:	686a      	ldr	r2, [r5, #4]
 800082c:	ea22 0203 	bic.w	r2, r2, r3
 8000830:	606a      	str	r2, [r5, #4]
 8000832:	e789      	b.n	8000748 <HAL_GPIO_Init+0xdc>
          CLEAR_BIT(EXTI->RTSR, iocurrent);
 8000834:	4d09      	ldr	r5, [pc, #36]	; (800085c <HAL_GPIO_Init+0x1f0>)
 8000836:	68aa      	ldr	r2, [r5, #8]
 8000838:	ea22 0203 	bic.w	r2, r2, r3
 800083c:	60aa      	str	r2, [r5, #8]
 800083e:	e78b      	b.n	8000758 <HAL_GPIO_Init+0xec>
        }
        else
        {
          CLEAR_BIT(EXTI->FTSR, iocurrent);
 8000840:	4d06      	ldr	r5, [pc, #24]	; (800085c <HAL_GPIO_Init+0x1f0>)
 8000842:	68ea      	ldr	r2, [r5, #12]
 8000844:	ea22 0303 	bic.w	r3, r2, r3
 8000848:	60eb      	str	r3, [r5, #12]
 800084a:	e78d      	b.n	8000768 <HAL_GPIO_Init+0xfc>
        }
      }
    }
  }
}
 800084c:	b003      	add	sp, #12
 800084e:	bdf0      	pop	{r4, r5, r6, r7, pc}
 8000850:	40021000 	.word	0x40021000
 8000854:	40010000 	.word	0x40010000
 8000858:	40010800 	.word	0x40010800
 800085c:	40010400 	.word	0x40010400
 8000860:	10210000 	.word	0x10210000
 8000864:	10310000 	.word	0x10310000

08000868 <HAL_GPIO_ReadPin>:
  GPIO_PinState bitstatus;

  /* Check the parameters */
  assert_param(IS_GPIO_PIN(GPIO_Pin));

  if ((GPIOx->IDR & GPIO_Pin) != (uint32_t)GPIO_PIN_RESET)
 8000868:	6883      	ldr	r3, [r0, #8]
 800086a:	4219      	tst	r1, r3
 800086c:	d101      	bne.n	8000872 <HAL_GPIO_ReadPin+0xa>
  {
    bitstatus = GPIO_PIN_SET;
  }
  else
  {
    bitstatus = GPIO_PIN_RESET;
 800086e:	2000      	movs	r0, #0
  }
  return bitstatus;
}
 8000870:	4770      	bx	lr
    bitstatus = GPIO_PIN_SET;
 8000872:	2001      	movs	r0, #1
 8000874:	4770      	bx	lr

08000876 <HAL_GPIO_WritePin>:
{
  /* Check the parameters */
  assert_param(IS_GPIO_PIN(GPIO_Pin));
  assert_param(IS_GPIO_PIN_ACTION(PinState));

  if (PinState != GPIO_PIN_RESET)
 8000876:	b912      	cbnz	r2, 800087e <HAL_GPIO_WritePin+0x8>
  {
    GPIOx->BSRR = GPIO_Pin;
  }
  else
  {
    GPIOx->BSRR = (uint32_t)GPIO_Pin << 16U;
 8000878:	0409      	lsls	r1, r1, #16
 800087a:	6101      	str	r1, [r0, #16]
 800087c:	4770      	bx	lr
    GPIOx->BSRR = GPIO_Pin;
 800087e:	6101      	str	r1, [r0, #16]
 8000880:	4770      	bx	lr
	...

08000884 <RCC_Delay>:
  * @brief  This function provides delay (in milliseconds) based on CPU cycles method.
  * @param  mdelay: specifies the delay time length, in milliseconds.
  * @retval None
  */
static void RCC_Delay(uint32_t mdelay)
{
 8000884:	b082      	sub	sp, #8
  __IO uint32_t Delay = mdelay * (SystemCoreClock / 8U / 1000U);
 8000886:	4b08      	ldr	r3, [pc, #32]	; (80008a8 <RCC_Delay+0x24>)
 8000888:	681b      	ldr	r3, [r3, #0]
 800088a:	4a08      	ldr	r2, [pc, #32]	; (80008ac <RCC_Delay+0x28>)
 800088c:	fba2 2303 	umull	r2, r3, r2, r3
 8000890:	0a5b      	lsrs	r3, r3, #9
 8000892:	fb00 f003 	mul.w	r0, r0, r3
 8000896:	9001      	str	r0, [sp, #4]
  \brief   No Operation
  \details No Operation does nothing. This instruction can be used for code alignment purposes.
 */
__attribute__((always_inline)) __STATIC_INLINE void __NOP(void)
{
  __ASM volatile ("nop");
 8000898:	bf00      	nop
  do 
  {
    __NOP();
  } 
  while (Delay --);
 800089a:	9b01      	ldr	r3, [sp, #4]
 800089c:	1e5a      	subs	r2, r3, #1
 800089e:	9201      	str	r2, [sp, #4]
 80008a0:	2b00      	cmp	r3, #0
 80008a2:	d1f9      	bne.n	8000898 <RCC_Delay+0x14>
}
 80008a4:	b002      	add	sp, #8
 80008a6:	4770      	bx	lr
 80008a8:	20000008 	.word	0x20000008
 80008ac:	10624dd3 	.word	0x10624dd3

080008b0 <HAL_RCC_OscConfig>:
{
 80008b0:	b570      	push	{r4, r5, r6, lr}
 80008b2:	b082      	sub	sp, #8
 80008b4:	4604      	mov	r4, r0
  if(((RCC_OscInitStruct->OscillatorType) & RCC_OSCILLATORTYPE_HSE) == RCC_OSCILLATORTYPE_HSE)
 80008b6:	6803      	ldr	r3, [r0, #0]
 80008b8:	f013 0f01 	tst.w	r3, #1
 80008bc:	d03d      	beq.n	800093a <HAL_RCC_OscConfig+0x8a>
    if((__HAL_RCC_GET_SYSCLK_SOURCE() == RCC_SYSCLKSOURCE_STATUS_HSE) 
 80008be:	4bac      	ldr	r3, [pc, #688]	; (8000b70 <HAL_RCC_OscConfig+0x2c0>)
 80008c0:	685b      	ldr	r3, [r3, #4]
 80008c2:	f003 030c 	and.w	r3, r3, #12
 80008c6:	2b04      	cmp	r3, #4
 80008c8:	d02e      	beq.n	8000928 <HAL_RCC_OscConfig+0x78>
       || ((__HAL_RCC_GET_SYSCLK_SOURCE() == RCC_SYSCLKSOURCE_STATUS_PLLCLK) && (__HAL_RCC_GET_PLL_OSCSOURCE() == RCC_PLLSOURCE_HSE)))
 80008ca:	4ba9      	ldr	r3, [pc, #676]	; (8000b70 <HAL_RCC_OscConfig+0x2c0>)
 80008cc:	685b      	ldr	r3, [r3, #4]
 80008ce:	f003 030c 	and.w	r3, r3, #12
 80008d2:	2b08      	cmp	r3, #8
 80008d4:	d023      	beq.n	800091e <HAL_RCC_OscConfig+0x6e>
      __HAL_RCC_HSE_CONFIG(RCC_OscInitStruct->HSEState);
 80008d6:	6863      	ldr	r3, [r4, #4]
 80008d8:	f5b3 3f80 	cmp.w	r3, #65536	; 0x10000
 80008dc:	d051      	beq.n	8000982 <HAL_RCC_OscConfig+0xd2>
 80008de:	2b00      	cmp	r3, #0
 80008e0:	d155      	bne.n	800098e <HAL_RCC_OscConfig+0xde>
 80008e2:	f103 4380 	add.w	r3, r3, #1073741824	; 0x40000000
 80008e6:	f503 3304 	add.w	r3, r3, #135168	; 0x21000
 80008ea:	681a      	ldr	r2, [r3, #0]
 80008ec:	f422 3280 	bic.w	r2, r2, #65536	; 0x10000
 80008f0:	601a      	str	r2, [r3, #0]
 80008f2:	681a      	ldr	r2, [r3, #0]
 80008f4:	f422 2280 	bic.w	r2, r2, #262144	; 0x40000
 80008f8:	601a      	str	r2, [r3, #0]
      if(RCC_OscInitStruct->HSEState != RCC_HSE_OFF)
 80008fa:	6863      	ldr	r3, [r4, #4]
 80008fc:	2b00      	cmp	r3, #0
 80008fe:	d060      	beq.n	80009c2 <HAL_RCC_OscConfig+0x112>
        tickstart = HAL_GetTick();
 8000900:	f7ff fcd2 	bl	80002a8 <HAL_GetTick>
 8000904:	4605      	mov	r5, r0
        while(__HAL_RCC_GET_FLAG(RCC_FLAG_HSERDY) == RESET)
 8000906:	4b9a      	ldr	r3, [pc, #616]	; (8000b70 <HAL_RCC_OscConfig+0x2c0>)
 8000908:	681b      	ldr	r3, [r3, #0]
 800090a:	f413 3f00 	tst.w	r3, #131072	; 0x20000
 800090e:	d114      	bne.n	800093a <HAL_RCC_OscConfig+0x8a>
          if((HAL_GetTick() - tickstart ) > HSE_TIMEOUT_VALUE)
 8000910:	f7ff fcca 	bl	80002a8 <HAL_GetTick>
 8000914:	1b40      	subs	r0, r0, r5
 8000916:	2864      	cmp	r0, #100	; 0x64
 8000918:	d9f5      	bls.n	8000906 <HAL_RCC_OscConfig+0x56>
            return HAL_TIMEOUT;
 800091a:	2003      	movs	r0, #3
 800091c:	e1af      	b.n	8000c7e <HAL_RCC_OscConfig+0x3ce>
       || ((__HAL_RCC_GET_SYSCLK_SOURCE() == RCC_SYSCLKSOURCE_STATUS_PLLCLK) && (__HAL_RCC_GET_PLL_OSCSOURCE() == RCC_PLLSOURCE_HSE)))
 800091e:	4b94      	ldr	r3, [pc, #592]	; (8000b70 <HAL_RCC_OscConfig+0x2c0>)
 8000920:	685b      	ldr	r3, [r3, #4]
 8000922:	f413 3f80 	tst.w	r3, #65536	; 0x10000
 8000926:	d0d6      	beq.n	80008d6 <HAL_RCC_OscConfig+0x26>
      if((__HAL_RCC_GET_FLAG(RCC_FLAG_HSERDY) != RESET) && (RCC_OscInitStruct->HSEState == RCC_HSE_OFF))
 8000928:	4b91      	ldr	r3, [pc, #580]	; (8000b70 <HAL_RCC_OscConfig+0x2c0>)
 800092a:	681b      	ldr	r3, [r3, #0]
 800092c:	f413 3f00 	tst.w	r3, #131072	; 0x20000
 8000930:	d003      	beq.n	800093a <HAL_RCC_OscConfig+0x8a>
 8000932:	6863      	ldr	r3, [r4, #4]
 8000934:	2b00      	cmp	r3, #0
 8000936:	f000 819f 	beq.w	8000c78 <HAL_RCC_OscConfig+0x3c8>
  if(((RCC_OscInitStruct->OscillatorType) & RCC_OSCILLATORTYPE_HSI) == RCC_OSCILLATORTYPE_HSI)
 800093a:	6823      	ldr	r3, [r4, #0]
 800093c:	f013 0f02 	tst.w	r3, #2
 8000940:	d065      	beq.n	8000a0e <HAL_RCC_OscConfig+0x15e>
    if((__HAL_RCC_GET_SYSCLK_SOURCE() == RCC_SYSCLKSOURCE_STATUS_HSI) 
 8000942:	4b8b      	ldr	r3, [pc, #556]	; (8000b70 <HAL_RCC_OscConfig+0x2c0>)
 8000944:	685b      	ldr	r3, [r3, #4]
 8000946:	f013 0f0c 	tst.w	r3, #12
 800094a:	d04e      	beq.n	80009ea <HAL_RCC_OscConfig+0x13a>
       || ((__HAL_RCC_GET_SYSCLK_SOURCE() == RCC_SYSCLKSOURCE_STATUS_PLLCLK) && (__HAL_RCC_GET_PLL_OSCSOURCE() == RCC_PLLSOURCE_HSI_DIV2)))
 800094c:	4b88      	ldr	r3, [pc, #544]	; (8000b70 <HAL_RCC_OscConfig+0x2c0>)
 800094e:	685b      	ldr	r3, [r3, #4]
 8000950:	f003 030c 	and.w	r3, r3, #12
 8000954:	2b08      	cmp	r3, #8
 8000956:	d043      	beq.n	80009e0 <HAL_RCC_OscConfig+0x130>
      if(RCC_OscInitStruct->HSIState != RCC_HSI_OFF)
 8000958:	6923      	ldr	r3, [r4, #16]
 800095a:	2b00      	cmp	r3, #0
 800095c:	d079      	beq.n	8000a52 <HAL_RCC_OscConfig+0x1a2>
        __HAL_RCC_HSI_ENABLE();
 800095e:	2201      	movs	r2, #1
 8000960:	4b84      	ldr	r3, [pc, #528]	; (8000b74 <HAL_RCC_OscConfig+0x2c4>)
 8000962:	601a      	str	r2, [r3, #0]
        tickstart = HAL_GetTick();
 8000964:	f7ff fca0 	bl	80002a8 <HAL_GetTick>
 8000968:	4605      	mov	r5, r0
        while(__HAL_RCC_GET_FLAG(RCC_FLAG_HSIRDY) == RESET)
 800096a:	4b81      	ldr	r3, [pc, #516]	; (8000b70 <HAL_RCC_OscConfig+0x2c0>)
 800096c:	681b      	ldr	r3, [r3, #0]
 800096e:	f013 0f02 	tst.w	r3, #2
 8000972:	d165      	bne.n	8000a40 <HAL_RCC_OscConfig+0x190>
          if((HAL_GetTick() - tickstart ) > HSI_TIMEOUT_VALUE)
 8000974:	f7ff fc98 	bl	80002a8 <HAL_GetTick>
 8000978:	1b40      	subs	r0, r0, r5
 800097a:	2802      	cmp	r0, #2
 800097c:	d9f5      	bls.n	800096a <HAL_RCC_OscConfig+0xba>
            return HAL_TIMEOUT;
 800097e:	2003      	movs	r0, #3
 8000980:	e17d      	b.n	8000c7e <HAL_RCC_OscConfig+0x3ce>
      __HAL_RCC_HSE_CONFIG(RCC_OscInitStruct->HSEState);
 8000982:	4a7b      	ldr	r2, [pc, #492]	; (8000b70 <HAL_RCC_OscConfig+0x2c0>)
 8000984:	6813      	ldr	r3, [r2, #0]
 8000986:	f443 3380 	orr.w	r3, r3, #65536	; 0x10000
 800098a:	6013      	str	r3, [r2, #0]
 800098c:	e7b5      	b.n	80008fa <HAL_RCC_OscConfig+0x4a>
 800098e:	f5b3 2fa0 	cmp.w	r3, #327680	; 0x50000
 8000992:	d009      	beq.n	80009a8 <HAL_RCC_OscConfig+0xf8>
 8000994:	4b76      	ldr	r3, [pc, #472]	; (8000b70 <HAL_RCC_OscConfig+0x2c0>)
 8000996:	681a      	ldr	r2, [r3, #0]
 8000998:	f422 3280 	bic.w	r2, r2, #65536	; 0x10000
 800099c:	601a      	str	r2, [r3, #0]
 800099e:	681a      	ldr	r2, [r3, #0]
 80009a0:	f422 2280 	bic.w	r2, r2, #262144	; 0x40000
 80009a4:	601a      	str	r2, [r3, #0]
 80009a6:	e7a8      	b.n	80008fa <HAL_RCC_OscConfig+0x4a>
 80009a8:	f103 4380 	add.w	r3, r3, #1073741824	; 0x40000000
 80009ac:	f5a3 333c 	sub.w	r3, r3, #192512	; 0x2f000
 80009b0:	681a      	ldr	r2, [r3, #0]
 80009b2:	f442 2280 	orr.w	r2, r2, #262144	; 0x40000
 80009b6:	601a      	str	r2, [r3, #0]
 80009b8:	681a      	ldr	r2, [r3, #0]
 80009ba:	f442 3280 	orr.w	r2, r2, #65536	; 0x10000
 80009be:	601a      	str	r2, [r3, #0]
 80009c0:	e79b      	b.n	80008fa <HAL_RCC_OscConfig+0x4a>
        tickstart = HAL_GetTick();
 80009c2:	f7ff fc71 	bl	80002a8 <HAL_GetTick>
 80009c6:	4605      	mov	r5, r0
        while(__HAL_RCC_GET_FLAG(RCC_FLAG_HSERDY) != RESET)
 80009c8:	4b69      	ldr	r3, [pc, #420]	; (8000b70 <HAL_RCC_OscConfig+0x2c0>)
 80009ca:	681b      	ldr	r3, [r3, #0]
 80009cc:	f413 3f00 	tst.w	r3, #131072	; 0x20000
 80009d0:	d0b3      	beq.n	800093a <HAL_RCC_OscConfig+0x8a>
           if((HAL_GetTick() - tickstart ) > HSE_TIMEOUT_VALUE)
 80009d2:	f7ff fc69 	bl	80002a8 <HAL_GetTick>
 80009d6:	1b40      	subs	r0, r0, r5
 80009d8:	2864      	cmp	r0, #100	; 0x64
 80009da:	d9f5      	bls.n	80009c8 <HAL_RCC_OscConfig+0x118>
            return HAL_TIMEOUT;
 80009dc:	2003      	movs	r0, #3
 80009de:	e14e      	b.n	8000c7e <HAL_RCC_OscConfig+0x3ce>
       || ((__HAL_RCC_GET_SYSCLK_SOURCE() == RCC_SYSCLKSOURCE_STATUS_PLLCLK) && (__HAL_RCC_GET_PLL_OSCSOURCE() == RCC_PLLSOURCE_HSI_DIV2)))
 80009e0:	4b63      	ldr	r3, [pc, #396]	; (8000b70 <HAL_RCC_OscConfig+0x2c0>)
 80009e2:	685b      	ldr	r3, [r3, #4]
 80009e4:	f413 3f80 	tst.w	r3, #65536	; 0x10000
 80009e8:	d1b6      	bne.n	8000958 <HAL_RCC_OscConfig+0xa8>
      if((__HAL_RCC_GET_FLAG(RCC_FLAG_HSIRDY) != RESET) && (RCC_OscInitStruct->HSIState != RCC_HSI_ON))
 80009ea:	4b61      	ldr	r3, [pc, #388]	; (8000b70 <HAL_RCC_OscConfig+0x2c0>)
 80009ec:	681b      	ldr	r3, [r3, #0]
 80009ee:	f013 0f02 	tst.w	r3, #2
 80009f2:	d004      	beq.n	80009fe <HAL_RCC_OscConfig+0x14e>
 80009f4:	6923      	ldr	r3, [r4, #16]
 80009f6:	2b01      	cmp	r3, #1
 80009f8:	d001      	beq.n	80009fe <HAL_RCC_OscConfig+0x14e>
        return HAL_ERROR;
 80009fa:	2001      	movs	r0, #1
 80009fc:	e13f      	b.n	8000c7e <HAL_RCC_OscConfig+0x3ce>
        __HAL_RCC_HSI_CALIBRATIONVALUE_ADJUST(RCC_OscInitStruct->HSICalibrationValue);
 80009fe:	4a5c      	ldr	r2, [pc, #368]	; (8000b70 <HAL_RCC_OscConfig+0x2c0>)
 8000a00:	6813      	ldr	r3, [r2, #0]
 8000a02:	f023 03f8 	bic.w	r3, r3, #248	; 0xf8
 8000a06:	6961      	ldr	r1, [r4, #20]
 8000a08:	ea43 03c1 	orr.w	r3, r3, r1, lsl #3
 8000a0c:	6013      	str	r3, [r2, #0]
  if(((RCC_OscInitStruct->OscillatorType) & RCC_OSCILLATORTYPE_LSI) == RCC_OSCILLATORTYPE_LSI)
 8000a0e:	6823      	ldr	r3, [r4, #0]
 8000a10:	f013 0f08 	tst.w	r3, #8
 8000a14:	d032      	beq.n	8000a7c <HAL_RCC_OscConfig+0x1cc>
    if(RCC_OscInitStruct->LSIState != RCC_LSI_OFF)
 8000a16:	69a3      	ldr	r3, [r4, #24]
 8000a18:	2b00      	cmp	r3, #0
 8000a1a:	d06e      	beq.n	8000afa <HAL_RCC_OscConfig+0x24a>
      __HAL_RCC_LSI_ENABLE();
 8000a1c:	2201      	movs	r2, #1
 8000a1e:	4b56      	ldr	r3, [pc, #344]	; (8000b78 <HAL_RCC_OscConfig+0x2c8>)
 8000a20:	601a      	str	r2, [r3, #0]
      tickstart = HAL_GetTick();
 8000a22:	f7ff fc41 	bl	80002a8 <HAL_GetTick>
 8000a26:	4605      	mov	r5, r0
      while(__HAL_RCC_GET_FLAG(RCC_FLAG_LSIRDY) == RESET)
 8000a28:	4b51      	ldr	r3, [pc, #324]	; (8000b70 <HAL_RCC_OscConfig+0x2c0>)
 8000a2a:	6a5b      	ldr	r3, [r3, #36]	; 0x24
 8000a2c:	f013 0f02 	tst.w	r3, #2
 8000a30:	d121      	bne.n	8000a76 <HAL_RCC_OscConfig+0x1c6>
        if((HAL_GetTick() - tickstart ) > LSI_TIMEOUT_VALUE)
 8000a32:	f7ff fc39 	bl	80002a8 <HAL_GetTick>
 8000a36:	1b40      	subs	r0, r0, r5
 8000a38:	2802      	cmp	r0, #2
 8000a3a:	d9f5      	bls.n	8000a28 <HAL_RCC_OscConfig+0x178>
          return HAL_TIMEOUT;
 8000a3c:	2003      	movs	r0, #3
 8000a3e:	e11e      	b.n	8000c7e <HAL_RCC_OscConfig+0x3ce>
        __HAL_RCC_HSI_CALIBRATIONVALUE_ADJUST(RCC_OscInitStruct->HSICalibrationValue);
 8000a40:	4a4b      	ldr	r2, [pc, #300]	; (8000b70 <HAL_RCC_OscConfig+0x2c0>)
 8000a42:	6813      	ldr	r3, [r2, #0]
 8000a44:	f023 03f8 	bic.w	r3, r3, #248	; 0xf8
 8000a48:	6961      	ldr	r1, [r4, #20]
 8000a4a:	ea43 03c1 	orr.w	r3, r3, r1, lsl #3
 8000a4e:	6013      	str	r3, [r2, #0]
 8000a50:	e7dd      	b.n	8000a0e <HAL_RCC_OscConfig+0x15e>
        __HAL_RCC_HSI_DISABLE();
 8000a52:	2200      	movs	r2, #0
 8000a54:	4b47      	ldr	r3, [pc, #284]	; (8000b74 <HAL_RCC_OscConfig+0x2c4>)
 8000a56:	601a      	str	r2, [r3, #0]
        tickstart = HAL_GetTick();
 8000a58:	f7ff fc26 	bl	80002a8 <HAL_GetTick>
 8000a5c:	4605      	mov	r5, r0
        while(__HAL_RCC_GET_FLAG(RCC_FLAG_HSIRDY) != RESET)
 8000a5e:	4b44      	ldr	r3, [pc, #272]	; (8000b70 <HAL_RCC_OscConfig+0x2c0>)
 8000a60:	681b      	ldr	r3, [r3, #0]
 8000a62:	f013 0f02 	tst.w	r3, #2
 8000a66:	d0d2      	beq.n	8000a0e <HAL_RCC_OscConfig+0x15e>
          if((HAL_GetTick() - tickstart ) > HSI_TIMEOUT_VALUE)
 8000a68:	f7ff fc1e 	bl	80002a8 <HAL_GetTick>
 8000a6c:	1b40      	subs	r0, r0, r5
 8000a6e:	2802      	cmp	r0, #2
 8000a70:	d9f5      	bls.n	8000a5e <HAL_RCC_OscConfig+0x1ae>
            return HAL_TIMEOUT;
 8000a72:	2003      	movs	r0, #3
 8000a74:	e103      	b.n	8000c7e <HAL_RCC_OscConfig+0x3ce>
      RCC_Delay(1);
 8000a76:	2001      	movs	r0, #1
 8000a78:	f7ff ff04 	bl	8000884 <RCC_Delay>
  if(((RCC_OscInitStruct->OscillatorType) & RCC_OSCILLATORTYPE_LSE) == RCC_OSCILLATORTYPE_LSE)
 8000a7c:	6823      	ldr	r3, [r4, #0]
 8000a7e:	f013 0f04 	tst.w	r3, #4
 8000a82:	f000 8099 	beq.w	8000bb8 <HAL_RCC_OscConfig+0x308>
    if(__HAL_RCC_PWR_IS_CLK_DISABLED())
 8000a86:	4b3a      	ldr	r3, [pc, #232]	; (8000b70 <HAL_RCC_OscConfig+0x2c0>)
 8000a88:	69db      	ldr	r3, [r3, #28]
 8000a8a:	f013 5f80 	tst.w	r3, #268435456	; 0x10000000
 8000a8e:	d146      	bne.n	8000b1e <HAL_RCC_OscConfig+0x26e>
      __HAL_RCC_PWR_CLK_ENABLE();
 8000a90:	4b37      	ldr	r3, [pc, #220]	; (8000b70 <HAL_RCC_OscConfig+0x2c0>)
 8000a92:	69da      	ldr	r2, [r3, #28]
 8000a94:	f042 5280 	orr.w	r2, r2, #268435456	; 0x10000000
 8000a98:	61da      	str	r2, [r3, #28]
 8000a9a:	69db      	ldr	r3, [r3, #28]
 8000a9c:	f003 5380 	and.w	r3, r3, #268435456	; 0x10000000
 8000aa0:	9301      	str	r3, [sp, #4]
 8000aa2:	9b01      	ldr	r3, [sp, #4]
      pwrclkchanged = SET;
 8000aa4:	2501      	movs	r5, #1
    if(HAL_IS_BIT_CLR(PWR->CR, PWR_CR_DBP))
 8000aa6:	4b35      	ldr	r3, [pc, #212]	; (8000b7c <HAL_RCC_OscConfig+0x2cc>)
 8000aa8:	681b      	ldr	r3, [r3, #0]
 8000aaa:	f413 7f80 	tst.w	r3, #256	; 0x100
 8000aae:	d038      	beq.n	8000b22 <HAL_RCC_OscConfig+0x272>
    __HAL_RCC_LSE_CONFIG(RCC_OscInitStruct->LSEState);
 8000ab0:	68e3      	ldr	r3, [r4, #12]
 8000ab2:	2b01      	cmp	r3, #1
 8000ab4:	d049      	beq.n	8000b4a <HAL_RCC_OscConfig+0x29a>
 8000ab6:	2b00      	cmp	r3, #0
 8000ab8:	d14d      	bne.n	8000b56 <HAL_RCC_OscConfig+0x2a6>
 8000aba:	f103 4380 	add.w	r3, r3, #1073741824	; 0x40000000
 8000abe:	f503 3304 	add.w	r3, r3, #135168	; 0x21000
 8000ac2:	6a1a      	ldr	r2, [r3, #32]
 8000ac4:	f022 0201 	bic.w	r2, r2, #1
 8000ac8:	621a      	str	r2, [r3, #32]
 8000aca:	6a1a      	ldr	r2, [r3, #32]
 8000acc:	f022 0204 	bic.w	r2, r2, #4
 8000ad0:	621a      	str	r2, [r3, #32]
    if(RCC_OscInitStruct->LSEState != RCC_LSE_OFF)
 8000ad2:	68e3      	ldr	r3, [r4, #12]
 8000ad4:	2b00      	cmp	r3, #0
 8000ad6:	d05d      	beq.n	8000b94 <HAL_RCC_OscConfig+0x2e4>
      tickstart = HAL_GetTick();
 8000ad8:	f7ff fbe6 	bl	80002a8 <HAL_GetTick>
 8000adc:	4606      	mov	r6, r0
      while(__HAL_RCC_GET_FLAG(RCC_FLAG_LSERDY) == RESET)
 8000ade:	4b24      	ldr	r3, [pc, #144]	; (8000b70 <HAL_RCC_OscConfig+0x2c0>)
 8000ae0:	6a1b      	ldr	r3, [r3, #32]
 8000ae2:	f013 0f02 	tst.w	r3, #2
 8000ae6:	d166      	bne.n	8000bb6 <HAL_RCC_OscConfig+0x306>
        if((HAL_GetTick() - tickstart ) > RCC_LSE_TIMEOUT_VALUE)
 8000ae8:	f7ff fbde 	bl	80002a8 <HAL_GetTick>
 8000aec:	1b80      	subs	r0, r0, r6
 8000aee:	f241 3388 	movw	r3, #5000	; 0x1388
 8000af2:	4298      	cmp	r0, r3
 8000af4:	d9f3      	bls.n	8000ade <HAL_RCC_OscConfig+0x22e>
          return HAL_TIMEOUT;
 8000af6:	2003      	movs	r0, #3
 8000af8:	e0c1      	b.n	8000c7e <HAL_RCC_OscConfig+0x3ce>
      __HAL_RCC_LSI_DISABLE();
 8000afa:	2200      	movs	r2, #0
 8000afc:	4b1e      	ldr	r3, [pc, #120]	; (8000b78 <HAL_RCC_OscConfig+0x2c8>)
 8000afe:	601a      	str	r2, [r3, #0]
      tickstart = HAL_GetTick();
 8000b00:	f7ff fbd2 	bl	80002a8 <HAL_GetTick>
 8000b04:	4605      	mov	r5, r0
      while(__HAL_RCC_GET_FLAG(RCC_FLAG_LSIRDY) != RESET)
 8000b06:	4b1a      	ldr	r3, [pc, #104]	; (8000b70 <HAL_RCC_OscConfig+0x2c0>)
 8000b08:	6a5b      	ldr	r3, [r3, #36]	; 0x24
 8000b0a:	f013 0f02 	tst.w	r3, #2
 8000b0e:	d0b5      	beq.n	8000a7c <HAL_RCC_OscConfig+0x1cc>
        if((HAL_GetTick() - tickstart ) > LSI_TIMEOUT_VALUE)
 8000b10:	f7ff fbca 	bl	80002a8 <HAL_GetTick>
 8000b14:	1b40      	subs	r0, r0, r5
 8000b16:	2802      	cmp	r0, #2
 8000b18:	d9f5      	bls.n	8000b06 <HAL_RCC_OscConfig+0x256>
          return HAL_TIMEOUT;
 8000b1a:	2003      	movs	r0, #3
 8000b1c:	e0af      	b.n	8000c7e <HAL_RCC_OscConfig+0x3ce>
    FlagStatus       pwrclkchanged = RESET;
 8000b1e:	2500      	movs	r5, #0
 8000b20:	e7c1      	b.n	8000aa6 <HAL_RCC_OscConfig+0x1f6>
      SET_BIT(PWR->CR, PWR_CR_DBP);
 8000b22:	4a16      	ldr	r2, [pc, #88]	; (8000b7c <HAL_RCC_OscConfig+0x2cc>)
 8000b24:	6813      	ldr	r3, [r2, #0]
 8000b26:	f443 7380 	orr.w	r3, r3, #256	; 0x100
 8000b2a:	6013      	str	r3, [r2, #0]
      tickstart = HAL_GetTick();
 8000b2c:	f7ff fbbc 	bl	80002a8 <HAL_GetTick>
 8000b30:	4606      	mov	r6, r0
      while(HAL_IS_BIT_CLR(PWR->CR, PWR_CR_DBP))
 8000b32:	4b12      	ldr	r3, [pc, #72]	; (8000b7c <HAL_RCC_OscConfig+0x2cc>)
 8000b34:	681b      	ldr	r3, [r3, #0]
 8000b36:	f413 7f80 	tst.w	r3, #256	; 0x100
 8000b3a:	d1b9      	bne.n	8000ab0 <HAL_RCC_OscConfig+0x200>
        if((HAL_GetTick() - tickstart) > RCC_DBP_TIMEOUT_VALUE)
 8000b3c:	f7ff fbb4 	bl	80002a8 <HAL_GetTick>
 8000b40:	1b80      	subs	r0, r0, r6
 8000b42:	2864      	cmp	r0, #100	; 0x64
 8000b44:	d9f5      	bls.n	8000b32 <HAL_RCC_OscConfig+0x282>
          return HAL_TIMEOUT;
 8000b46:	2003      	movs	r0, #3
 8000b48:	e099      	b.n	8000c7e <HAL_RCC_OscConfig+0x3ce>
    __HAL_RCC_LSE_CONFIG(RCC_OscInitStruct->LSEState);
 8000b4a:	4a09      	ldr	r2, [pc, #36]	; (8000b70 <HAL_RCC_OscConfig+0x2c0>)
 8000b4c:	6a13      	ldr	r3, [r2, #32]
 8000b4e:	f043 0301 	orr.w	r3, r3, #1
 8000b52:	6213      	str	r3, [r2, #32]
 8000b54:	e7bd      	b.n	8000ad2 <HAL_RCC_OscConfig+0x222>
 8000b56:	2b05      	cmp	r3, #5
 8000b58:	d012      	beq.n	8000b80 <HAL_RCC_OscConfig+0x2d0>
 8000b5a:	4b05      	ldr	r3, [pc, #20]	; (8000b70 <HAL_RCC_OscConfig+0x2c0>)
 8000b5c:	6a1a      	ldr	r2, [r3, #32]
 8000b5e:	f022 0201 	bic.w	r2, r2, #1
 8000b62:	621a      	str	r2, [r3, #32]
 8000b64:	6a1a      	ldr	r2, [r3, #32]
 8000b66:	f022 0204 	bic.w	r2, r2, #4
 8000b6a:	621a      	str	r2, [r3, #32]
 8000b6c:	e7b1      	b.n	8000ad2 <HAL_RCC_OscConfig+0x222>
 8000b6e:	bf00      	nop
 8000b70:	40021000 	.word	0x40021000
 8000b74:	42420000 	.word	0x42420000
 8000b78:	42420480 	.word	0x42420480
 8000b7c:	40007000 	.word	0x40007000
 8000b80:	4b41      	ldr	r3, [pc, #260]	; (8000c88 <HAL_RCC_OscConfig+0x3d8>)
 8000b82:	6a1a      	ldr	r2, [r3, #32]
 8000b84:	f042 0204 	orr.w	r2, r2, #4
 8000b88:	621a      	str	r2, [r3, #32]
 8000b8a:	6a1a      	ldr	r2, [r3, #32]
 8000b8c:	f042 0201 	orr.w	r2, r2, #1
 8000b90:	621a      	str	r2, [r3, #32]
 8000b92:	e79e      	b.n	8000ad2 <HAL_RCC_OscConfig+0x222>
      tickstart = HAL_GetTick();
 8000b94:	f7ff fb88 	bl	80002a8 <HAL_GetTick>
 8000b98:	4606      	mov	r6, r0
      while(__HAL_RCC_GET_FLAG(RCC_FLAG_LSERDY) != RESET)
 8000b9a:	4b3b      	ldr	r3, [pc, #236]	; (8000c88 <HAL_RCC_OscConfig+0x3d8>)
 8000b9c:	6a1b      	ldr	r3, [r3, #32]
 8000b9e:	f013 0f02 	tst.w	r3, #2
 8000ba2:	d008      	beq.n	8000bb6 <HAL_RCC_OscConfig+0x306>
        if((HAL_GetTick() - tickstart ) > RCC_LSE_TIMEOUT_VALUE)
 8000ba4:	f7ff fb80 	bl	80002a8 <HAL_GetTick>
 8000ba8:	1b80      	subs	r0, r0, r6
 8000baa:	f241 3388 	movw	r3, #5000	; 0x1388
 8000bae:	4298      	cmp	r0, r3
 8000bb0:	d9f3      	bls.n	8000b9a <HAL_RCC_OscConfig+0x2ea>
          return HAL_TIMEOUT;
 8000bb2:	2003      	movs	r0, #3
 8000bb4:	e063      	b.n	8000c7e <HAL_RCC_OscConfig+0x3ce>
    if(pwrclkchanged == SET)
 8000bb6:	b9e5      	cbnz	r5, 8000bf2 <HAL_RCC_OscConfig+0x342>
  if ((RCC_OscInitStruct->PLL.PLLState) != RCC_PLL_NONE)
 8000bb8:	69e3      	ldr	r3, [r4, #28]
 8000bba:	2b00      	cmp	r3, #0
 8000bbc:	d05e      	beq.n	8000c7c <HAL_RCC_OscConfig+0x3cc>
    if(__HAL_RCC_GET_SYSCLK_SOURCE() != RCC_SYSCLKSOURCE_STATUS_PLLCLK)
 8000bbe:	4a32      	ldr	r2, [pc, #200]	; (8000c88 <HAL_RCC_OscConfig+0x3d8>)
 8000bc0:	6852      	ldr	r2, [r2, #4]
 8000bc2:	f002 020c 	and.w	r2, r2, #12
 8000bc6:	2a08      	cmp	r2, #8
 8000bc8:	d05b      	beq.n	8000c82 <HAL_RCC_OscConfig+0x3d2>
      if((RCC_OscInitStruct->PLL.PLLState) == RCC_PLL_ON)
 8000bca:	2b02      	cmp	r3, #2
 8000bcc:	d017      	beq.n	8000bfe <HAL_RCC_OscConfig+0x34e>
        __HAL_RCC_PLL_DISABLE();
 8000bce:	2200      	movs	r2, #0
 8000bd0:	4b2e      	ldr	r3, [pc, #184]	; (8000c8c <HAL_RCC_OscConfig+0x3dc>)
 8000bd2:	601a      	str	r2, [r3, #0]
        tickstart = HAL_GetTick();
 8000bd4:	f7ff fb68 	bl	80002a8 <HAL_GetTick>
 8000bd8:	4604      	mov	r4, r0
        while(__HAL_RCC_GET_FLAG(RCC_FLAG_PLLRDY)  != RESET)
 8000bda:	4b2b      	ldr	r3, [pc, #172]	; (8000c88 <HAL_RCC_OscConfig+0x3d8>)
 8000bdc:	681b      	ldr	r3, [r3, #0]
 8000bde:	f013 7f00 	tst.w	r3, #33554432	; 0x2000000
 8000be2:	d047      	beq.n	8000c74 <HAL_RCC_OscConfig+0x3c4>
          if((HAL_GetTick() - tickstart ) > PLL_TIMEOUT_VALUE)
 8000be4:	f7ff fb60 	bl	80002a8 <HAL_GetTick>
 8000be8:	1b00      	subs	r0, r0, r4
 8000bea:	2802      	cmp	r0, #2
 8000bec:	d9f5      	bls.n	8000bda <HAL_RCC_OscConfig+0x32a>
            return HAL_TIMEOUT;
 8000bee:	2003      	movs	r0, #3
 8000bf0:	e045      	b.n	8000c7e <HAL_RCC_OscConfig+0x3ce>
      __HAL_RCC_PWR_CLK_DISABLE();
 8000bf2:	4a25      	ldr	r2, [pc, #148]	; (8000c88 <HAL_RCC_OscConfig+0x3d8>)
 8000bf4:	69d3      	ldr	r3, [r2, #28]
 8000bf6:	f023 5380 	bic.w	r3, r3, #268435456	; 0x10000000
 8000bfa:	61d3      	str	r3, [r2, #28]
 8000bfc:	e7dc      	b.n	8000bb8 <HAL_RCC_OscConfig+0x308>
        __HAL_RCC_PLL_DISABLE();
 8000bfe:	2200      	movs	r2, #0
 8000c00:	4b22      	ldr	r3, [pc, #136]	; (8000c8c <HAL_RCC_OscConfig+0x3dc>)
 8000c02:	601a      	str	r2, [r3, #0]
        tickstart = HAL_GetTick();
 8000c04:	f7ff fb50 	bl	80002a8 <HAL_GetTick>
 8000c08:	4605      	mov	r5, r0
        while(__HAL_RCC_GET_FLAG(RCC_FLAG_PLLRDY)  != RESET)
 8000c0a:	4b1f      	ldr	r3, [pc, #124]	; (8000c88 <HAL_RCC_OscConfig+0x3d8>)
 8000c0c:	681b      	ldr	r3, [r3, #0]
 8000c0e:	f013 7f00 	tst.w	r3, #33554432	; 0x2000000
 8000c12:	d006      	beq.n	8000c22 <HAL_RCC_OscConfig+0x372>
          if((HAL_GetTick() - tickstart ) > PLL_TIMEOUT_VALUE)
 8000c14:	f7ff fb48 	bl	80002a8 <HAL_GetTick>
 8000c18:	1b40      	subs	r0, r0, r5
 8000c1a:	2802      	cmp	r0, #2
 8000c1c:	d9f5      	bls.n	8000c0a <HAL_RCC_OscConfig+0x35a>
            return HAL_TIMEOUT;
 8000c1e:	2003      	movs	r0, #3
 8000c20:	e02d      	b.n	8000c7e <HAL_RCC_OscConfig+0x3ce>
        if(RCC_OscInitStruct->PLL.PLLSource == RCC_PLLSOURCE_HSE)
 8000c22:	6a23      	ldr	r3, [r4, #32]
 8000c24:	f5b3 3f80 	cmp.w	r3, #65536	; 0x10000
 8000c28:	d01a      	beq.n	8000c60 <HAL_RCC_OscConfig+0x3b0>
        __HAL_RCC_PLL_CONFIG(RCC_OscInitStruct->PLL.PLLSource,
 8000c2a:	4917      	ldr	r1, [pc, #92]	; (8000c88 <HAL_RCC_OscConfig+0x3d8>)
 8000c2c:	684b      	ldr	r3, [r1, #4]
 8000c2e:	f423 1374 	bic.w	r3, r3, #3997696	; 0x3d0000
 8000c32:	6a22      	ldr	r2, [r4, #32]
 8000c34:	6a60      	ldr	r0, [r4, #36]	; 0x24
 8000c36:	4302      	orrs	r2, r0
 8000c38:	4313      	orrs	r3, r2
 8000c3a:	604b      	str	r3, [r1, #4]
        __HAL_RCC_PLL_ENABLE();
 8000c3c:	2201      	movs	r2, #1
 8000c3e:	4b13      	ldr	r3, [pc, #76]	; (8000c8c <HAL_RCC_OscConfig+0x3dc>)
 8000c40:	601a      	str	r2, [r3, #0]
        tickstart = HAL_GetTick();
 8000c42:	f7ff fb31 	bl	80002a8 <HAL_GetTick>
 8000c46:	4604      	mov	r4, r0
        while(__HAL_RCC_GET_FLAG(RCC_FLAG_PLLRDY)  == RESET)
 8000c48:	4b0f      	ldr	r3, [pc, #60]	; (8000c88 <HAL_RCC_OscConfig+0x3d8>)
 8000c4a:	681b      	ldr	r3, [r3, #0]
 8000c4c:	f013 7f00 	tst.w	r3, #33554432	; 0x2000000
 8000c50:	d10e      	bne.n	8000c70 <HAL_RCC_OscConfig+0x3c0>
          if((HAL_GetTick() - tickstart ) > PLL_TIMEOUT_VALUE)
 8000c52:	f7ff fb29 	bl	80002a8 <HAL_GetTick>
 8000c56:	1b00      	subs	r0, r0, r4
 8000c58:	2802      	cmp	r0, #2
 8000c5a:	d9f5      	bls.n	8000c48 <HAL_RCC_OscConfig+0x398>
            return HAL_TIMEOUT;
 8000c5c:	2003      	movs	r0, #3
 8000c5e:	e00e      	b.n	8000c7e <HAL_RCC_OscConfig+0x3ce>
          __HAL_RCC_HSE_PREDIV_CONFIG(RCC_OscInitStruct->HSEPredivValue);
 8000c60:	4a09      	ldr	r2, [pc, #36]	; (8000c88 <HAL_RCC_OscConfig+0x3d8>)
 8000c62:	6853      	ldr	r3, [r2, #4]
 8000c64:	f423 3300 	bic.w	r3, r3, #131072	; 0x20000
 8000c68:	68a1      	ldr	r1, [r4, #8]
 8000c6a:	430b      	orrs	r3, r1
 8000c6c:	6053      	str	r3, [r2, #4]
 8000c6e:	e7dc      	b.n	8000c2a <HAL_RCC_OscConfig+0x37a>
  return HAL_OK;
 8000c70:	2000      	movs	r0, #0
 8000c72:	e004      	b.n	8000c7e <HAL_RCC_OscConfig+0x3ce>
 8000c74:	2000      	movs	r0, #0
 8000c76:	e002      	b.n	8000c7e <HAL_RCC_OscConfig+0x3ce>
        return HAL_ERROR;
 8000c78:	2001      	movs	r0, #1
 8000c7a:	e000      	b.n	8000c7e <HAL_RCC_OscConfig+0x3ce>
  return HAL_OK;
 8000c7c:	2000      	movs	r0, #0
}
 8000c7e:	b002      	add	sp, #8
 8000c80:	bd70      	pop	{r4, r5, r6, pc}
      return HAL_ERROR;
 8000c82:	2001      	movs	r0, #1
 8000c84:	e7fb      	b.n	8000c7e <HAL_RCC_OscConfig+0x3ce>
 8000c86:	bf00      	nop
 8000c88:	40021000 	.word	0x40021000
 8000c8c:	42420060 	.word	0x42420060

08000c90 <HAL_RCC_GetSysClockFreq>:
{
 8000c90:	b510      	push	{r4, lr}
 8000c92:	b086      	sub	sp, #24
  const uint8_t aPLLMULFactorTable[16] = {2, 3, 4, 5, 6, 7, 8, 9, 10, 11, 12, 13, 14, 15, 16, 16};
 8000c94:	4c15      	ldr	r4, [pc, #84]	; (8000cec <HAL_RCC_GetSysClockFreq+0x5c>)
 8000c96:	e894 000f 	ldmia.w	r4, {r0, r1, r2, r3}
 8000c9a:	f10d 0e18 	add.w	lr, sp, #24
 8000c9e:	e90e 000f 	stmdb	lr, {r0, r1, r2, r3}
  const uint8_t aPredivFactorTable[2] = {1, 2};
 8000ca2:	8a23      	ldrh	r3, [r4, #16]
 8000ca4:	f8ad 3004 	strh.w	r3, [sp, #4]
  tmpreg = RCC->CFGR;
 8000ca8:	4b11      	ldr	r3, [pc, #68]	; (8000cf0 <HAL_RCC_GetSysClockFreq+0x60>)
 8000caa:	685b      	ldr	r3, [r3, #4]
  switch (tmpreg & RCC_CFGR_SWS)
 8000cac:	f003 020c 	and.w	r2, r3, #12
 8000cb0:	2a08      	cmp	r2, #8
 8000cb2:	d118      	bne.n	8000ce6 <HAL_RCC_GetSysClockFreq+0x56>
      pllmul = aPLLMULFactorTable[(uint32_t)(tmpreg & RCC_CFGR_PLLMULL) >> RCC_CFGR_PLLMULL_Pos];
 8000cb4:	f3c3 4283 	ubfx	r2, r3, #18, #4
 8000cb8:	4472      	add	r2, lr
 8000cba:	f812 2c10 	ldrb.w	r2, [r2, #-16]
      if ((tmpreg & RCC_CFGR_PLLSRC) != RCC_PLLSOURCE_HSI_DIV2)
 8000cbe:	f413 3f80 	tst.w	r3, #65536	; 0x10000
 8000cc2:	d103      	bne.n	8000ccc <HAL_RCC_GetSysClockFreq+0x3c>
        pllclk = (uint32_t)((HSI_VALUE >> 1) * pllmul);
 8000cc4:	480b      	ldr	r0, [pc, #44]	; (8000cf4 <HAL_RCC_GetSysClockFreq+0x64>)
 8000cc6:	fb00 f002 	mul.w	r0, r0, r2
 8000cca:	e00d      	b.n	8000ce8 <HAL_RCC_GetSysClockFreq+0x58>
        prediv = aPredivFactorTable[(uint32_t)(RCC->CFGR & RCC_CFGR_PLLXTPRE) >> RCC_CFGR_PLLXTPRE_Pos];
 8000ccc:	4b08      	ldr	r3, [pc, #32]	; (8000cf0 <HAL_RCC_GetSysClockFreq+0x60>)
 8000cce:	685b      	ldr	r3, [r3, #4]
 8000cd0:	f3c3 4340 	ubfx	r3, r3, #17, #1
 8000cd4:	4473      	add	r3, lr
 8000cd6:	f813 3c14 	ldrb.w	r3, [r3, #-20]
        pllclk = (uint32_t)((HSE_VALUE  * pllmul) / prediv);
 8000cda:	4807      	ldr	r0, [pc, #28]	; (8000cf8 <HAL_RCC_GetSysClockFreq+0x68>)
 8000cdc:	fb00 f002 	mul.w	r0, r0, r2
 8000ce0:	fbb0 f0f3 	udiv	r0, r0, r3
 8000ce4:	e000      	b.n	8000ce8 <HAL_RCC_GetSysClockFreq+0x58>
      sysclockfreq = HSE_VALUE;
 8000ce6:	4804      	ldr	r0, [pc, #16]	; (8000cf8 <HAL_RCC_GetSysClockFreq+0x68>)
}
 8000ce8:	b006      	add	sp, #24
 8000cea:	bd10      	pop	{r4, pc}
 8000cec:	08002dd8 	.word	0x08002dd8
 8000cf0:	40021000 	.word	0x40021000
 8000cf4:	003d0900 	.word	0x003d0900
 8000cf8:	007a1200 	.word	0x007a1200

08000cfc <HAL_RCC_ClockConfig>:
  if(FLatency > (FLASH->ACR & FLASH_ACR_LATENCY))
 8000cfc:	4b59      	ldr	r3, [pc, #356]	; (8000e64 <HAL_RCC_ClockConfig+0x168>)
 8000cfe:	681b      	ldr	r3, [r3, #0]
 8000d00:	f003 0307 	and.w	r3, r3, #7
 8000d04:	428b      	cmp	r3, r1
 8000d06:	d20c      	bcs.n	8000d22 <HAL_RCC_ClockConfig+0x26>
    __HAL_FLASH_SET_LATENCY(FLatency);
 8000d08:	4a56      	ldr	r2, [pc, #344]	; (8000e64 <HAL_RCC_ClockConfig+0x168>)
 8000d0a:	6813      	ldr	r3, [r2, #0]
 8000d0c:	f023 0307 	bic.w	r3, r3, #7
 8000d10:	430b      	orrs	r3, r1
 8000d12:	6013      	str	r3, [r2, #0]
    if((FLASH->ACR & FLASH_ACR_LATENCY) != FLatency)
 8000d14:	6813      	ldr	r3, [r2, #0]
 8000d16:	f003 0307 	and.w	r3, r3, #7
 8000d1a:	4299      	cmp	r1, r3
 8000d1c:	d001      	beq.n	8000d22 <HAL_RCC_ClockConfig+0x26>
      return HAL_ERROR;
 8000d1e:	2001      	movs	r0, #1
 8000d20:	4770      	bx	lr
{
 8000d22:	b570      	push	{r4, r5, r6, lr}
  if(((RCC_ClkInitStruct->ClockType) & RCC_CLOCKTYPE_HCLK) == RCC_CLOCKTYPE_HCLK)
 8000d24:	6803      	ldr	r3, [r0, #0]
 8000d26:	f013 0f02 	tst.w	r3, #2
 8000d2a:	d006      	beq.n	8000d3a <HAL_RCC_ClockConfig+0x3e>
    MODIFY_REG(RCC->CFGR, RCC_CFGR_HPRE, RCC_ClkInitStruct->AHBCLKDivider);
 8000d2c:	4a4e      	ldr	r2, [pc, #312]	; (8000e68 <HAL_RCC_ClockConfig+0x16c>)
 8000d2e:	6853      	ldr	r3, [r2, #4]
 8000d30:	f023 03f0 	bic.w	r3, r3, #240	; 0xf0
 8000d34:	6884      	ldr	r4, [r0, #8]
 8000d36:	4323      	orrs	r3, r4
 8000d38:	6053      	str	r3, [r2, #4]
 8000d3a:	460d      	mov	r5, r1
 8000d3c:	4604      	mov	r4, r0
  if(((RCC_ClkInitStruct->ClockType) & RCC_CLOCKTYPE_SYSCLK) == RCC_CLOCKTYPE_SYSCLK)
 8000d3e:	6803      	ldr	r3, [r0, #0]
 8000d40:	f013 0f01 	tst.w	r3, #1
 8000d44:	d052      	beq.n	8000dec <HAL_RCC_ClockConfig+0xf0>
    if(RCC_ClkInitStruct->SYSCLKSource == RCC_SYSCLKSOURCE_HSE)
 8000d46:	6843      	ldr	r3, [r0, #4]
 8000d48:	2b01      	cmp	r3, #1
 8000d4a:	d023      	beq.n	8000d94 <HAL_RCC_ClockConfig+0x98>
    else if(RCC_ClkInitStruct->SYSCLKSource == RCC_SYSCLKSOURCE_PLLCLK)
 8000d4c:	2b02      	cmp	r3, #2
 8000d4e:	d028      	beq.n	8000da2 <HAL_RCC_ClockConfig+0xa6>
      if(__HAL_RCC_GET_FLAG(RCC_FLAG_HSIRDY) == RESET)
 8000d50:	4a45      	ldr	r2, [pc, #276]	; (8000e68 <HAL_RCC_ClockConfig+0x16c>)
 8000d52:	6812      	ldr	r2, [r2, #0]
 8000d54:	f012 0f02 	tst.w	r2, #2
 8000d58:	f000 8082 	beq.w	8000e60 <HAL_RCC_ClockConfig+0x164>
    __HAL_RCC_SYSCLK_CONFIG(RCC_ClkInitStruct->SYSCLKSource);
 8000d5c:	4942      	ldr	r1, [pc, #264]	; (8000e68 <HAL_RCC_ClockConfig+0x16c>)
 8000d5e:	684a      	ldr	r2, [r1, #4]
 8000d60:	f022 0203 	bic.w	r2, r2, #3
 8000d64:	4313      	orrs	r3, r2
 8000d66:	604b      	str	r3, [r1, #4]
    tickstart = HAL_GetTick();
 8000d68:	f7ff fa9e 	bl	80002a8 <HAL_GetTick>
 8000d6c:	4606      	mov	r6, r0
    if(RCC_ClkInitStruct->SYSCLKSource == RCC_SYSCLKSOURCE_HSE)
 8000d6e:	6863      	ldr	r3, [r4, #4]
 8000d70:	2b01      	cmp	r3, #1
 8000d72:	d01d      	beq.n	8000db0 <HAL_RCC_ClockConfig+0xb4>
    else if(RCC_ClkInitStruct->SYSCLKSource == RCC_SYSCLKSOURCE_PLLCLK)
 8000d74:	2b02      	cmp	r3, #2
 8000d76:	d02a      	beq.n	8000dce <HAL_RCC_ClockConfig+0xd2>
      while (__HAL_RCC_GET_SYSCLK_SOURCE() != RCC_SYSCLKSOURCE_STATUS_HSI)
 8000d78:	4b3b      	ldr	r3, [pc, #236]	; (8000e68 <HAL_RCC_ClockConfig+0x16c>)
 8000d7a:	685b      	ldr	r3, [r3, #4]
 8000d7c:	f013 0f0c 	tst.w	r3, #12
 8000d80:	d034      	beq.n	8000dec <HAL_RCC_ClockConfig+0xf0>
        if((HAL_GetTick() - tickstart ) > CLOCKSWITCH_TIMEOUT_VALUE)
 8000d82:	f7ff fa91 	bl	80002a8 <HAL_GetTick>
 8000d86:	1b80      	subs	r0, r0, r6
 8000d88:	f241 3388 	movw	r3, #5000	; 0x1388
 8000d8c:	4298      	cmp	r0, r3
 8000d8e:	d9f3      	bls.n	8000d78 <HAL_RCC_ClockConfig+0x7c>
          return HAL_TIMEOUT;
 8000d90:	2003      	movs	r0, #3
 8000d92:	bd70      	pop	{r4, r5, r6, pc}
      if(__HAL_RCC_GET_FLAG(RCC_FLAG_HSERDY) == RESET)
 8000d94:	4a34      	ldr	r2, [pc, #208]	; (8000e68 <HAL_RCC_ClockConfig+0x16c>)
 8000d96:	6812      	ldr	r2, [r2, #0]
 8000d98:	f412 3f00 	tst.w	r2, #131072	; 0x20000
 8000d9c:	d1de      	bne.n	8000d5c <HAL_RCC_ClockConfig+0x60>
        return HAL_ERROR;
 8000d9e:	2001      	movs	r0, #1
 8000da0:	bd70      	pop	{r4, r5, r6, pc}
      if(__HAL_RCC_GET_FLAG(RCC_FLAG_PLLRDY) == RESET)
 8000da2:	4a31      	ldr	r2, [pc, #196]	; (8000e68 <HAL_RCC_ClockConfig+0x16c>)
 8000da4:	6812      	ldr	r2, [r2, #0]
 8000da6:	f012 7f00 	tst.w	r2, #33554432	; 0x2000000
 8000daa:	d1d7      	bne.n	8000d5c <HAL_RCC_ClockConfig+0x60>
        return HAL_ERROR;
 8000dac:	2001      	movs	r0, #1
 8000dae:	bd70      	pop	{r4, r5, r6, pc}
      while (__HAL_RCC_GET_SYSCLK_SOURCE() != RCC_SYSCLKSOURCE_STATUS_HSE)
 8000db0:	4b2d      	ldr	r3, [pc, #180]	; (8000e68 <HAL_RCC_ClockConfig+0x16c>)
 8000db2:	685b      	ldr	r3, [r3, #4]
 8000db4:	f003 030c 	and.w	r3, r3, #12
 8000db8:	2b04      	cmp	r3, #4
 8000dba:	d017      	beq.n	8000dec <HAL_RCC_ClockConfig+0xf0>
        if((HAL_GetTick() - tickstart ) > CLOCKSWITCH_TIMEOUT_VALUE)
 8000dbc:	f7ff fa74 	bl	80002a8 <HAL_GetTick>
 8000dc0:	1b80      	subs	r0, r0, r6
 8000dc2:	f241 3388 	movw	r3, #5000	; 0x1388
 8000dc6:	4298      	cmp	r0, r3
 8000dc8:	d9f2      	bls.n	8000db0 <HAL_RCC_ClockConfig+0xb4>
          return HAL_TIMEOUT;
 8000dca:	2003      	movs	r0, #3
 8000dcc:	bd70      	pop	{r4, r5, r6, pc}
      while (__HAL_RCC_GET_SYSCLK_SOURCE() != RCC_SYSCLKSOURCE_STATUS_PLLCLK)
 8000dce:	4b26      	ldr	r3, [pc, #152]	; (8000e68 <HAL_RCC_ClockConfig+0x16c>)
 8000dd0:	685b      	ldr	r3, [r3, #4]
 8000dd2:	f003 030c 	and.w	r3, r3, #12
 8000dd6:	2b08      	cmp	r3, #8
 8000dd8:	d008      	beq.n	8000dec <HAL_RCC_ClockConfig+0xf0>
        if((HAL_GetTick() - tickstart ) > CLOCKSWITCH_TIMEOUT_VALUE)
 8000dda:	f7ff fa65 	bl	80002a8 <HAL_GetTick>
 8000dde:	1b80      	subs	r0, r0, r6
 8000de0:	f241 3388 	movw	r3, #5000	; 0x1388
 8000de4:	4298      	cmp	r0, r3
 8000de6:	d9f2      	bls.n	8000dce <HAL_RCC_ClockConfig+0xd2>
          return HAL_TIMEOUT;
 8000de8:	2003      	movs	r0, #3
 8000dea:	bd70      	pop	{r4, r5, r6, pc}
  if(FLatency < (FLASH->ACR & FLASH_ACR_LATENCY))
 8000dec:	4b1d      	ldr	r3, [pc, #116]	; (8000e64 <HAL_RCC_ClockConfig+0x168>)
 8000dee:	681b      	ldr	r3, [r3, #0]
 8000df0:	f003 0307 	and.w	r3, r3, #7
 8000df4:	429d      	cmp	r5, r3
 8000df6:	d20c      	bcs.n	8000e12 <HAL_RCC_ClockConfig+0x116>
    __HAL_FLASH_SET_LATENCY(FLatency);
 8000df8:	4a1a      	ldr	r2, [pc, #104]	; (8000e64 <HAL_RCC_ClockConfig+0x168>)
 8000dfa:	6813      	ldr	r3, [r2, #0]
 8000dfc:	f023 0307 	bic.w	r3, r3, #7
 8000e00:	432b      	orrs	r3, r5
 8000e02:	6013      	str	r3, [r2, #0]
    if((FLASH->ACR & FLASH_ACR_LATENCY) != FLatency)
 8000e04:	6813      	ldr	r3, [r2, #0]
 8000e06:	f003 0307 	and.w	r3, r3, #7
 8000e0a:	429d      	cmp	r5, r3
 8000e0c:	d001      	beq.n	8000e12 <HAL_RCC_ClockConfig+0x116>
      return HAL_ERROR;
 8000e0e:	2001      	movs	r0, #1
}
 8000e10:	bd70      	pop	{r4, r5, r6, pc}
  if(((RCC_ClkInitStruct->ClockType) & RCC_CLOCKTYPE_PCLK1) == RCC_CLOCKTYPE_PCLK1)
 8000e12:	6823      	ldr	r3, [r4, #0]
 8000e14:	f013 0f04 	tst.w	r3, #4
 8000e18:	d006      	beq.n	8000e28 <HAL_RCC_ClockConfig+0x12c>
    MODIFY_REG(RCC->CFGR, RCC_CFGR_PPRE1, RCC_ClkInitStruct->APB1CLKDivider);
 8000e1a:	4a13      	ldr	r2, [pc, #76]	; (8000e68 <HAL_RCC_ClockConfig+0x16c>)
 8000e1c:	6853      	ldr	r3, [r2, #4]
 8000e1e:	f423 63e0 	bic.w	r3, r3, #1792	; 0x700
 8000e22:	68e1      	ldr	r1, [r4, #12]
 8000e24:	430b      	orrs	r3, r1
 8000e26:	6053      	str	r3, [r2, #4]
  if(((RCC_ClkInitStruct->ClockType) & RCC_CLOCKTYPE_PCLK2) == RCC_CLOCKTYPE_PCLK2)
 8000e28:	6823      	ldr	r3, [r4, #0]
 8000e2a:	f013 0f08 	tst.w	r3, #8
 8000e2e:	d007      	beq.n	8000e40 <HAL_RCC_ClockConfig+0x144>
    MODIFY_REG(RCC->CFGR, RCC_CFGR_PPRE2, ((RCC_ClkInitStruct->APB2CLKDivider) << 3));
 8000e30:	4a0d      	ldr	r2, [pc, #52]	; (8000e68 <HAL_RCC_ClockConfig+0x16c>)
 8000e32:	6853      	ldr	r3, [r2, #4]
 8000e34:	f423 5360 	bic.w	r3, r3, #14336	; 0x3800
 8000e38:	6921      	ldr	r1, [r4, #16]
 8000e3a:	ea43 03c1 	orr.w	r3, r3, r1, lsl #3
 8000e3e:	6053      	str	r3, [r2, #4]
  SystemCoreClock = HAL_RCC_GetSysClockFreq() >> AHBPrescTable[(RCC->CFGR & RCC_CFGR_HPRE)>> RCC_CFGR_HPRE_Pos];
 8000e40:	f7ff ff26 	bl	8000c90 <HAL_RCC_GetSysClockFreq>
 8000e44:	4b08      	ldr	r3, [pc, #32]	; (8000e68 <HAL_RCC_ClockConfig+0x16c>)
 8000e46:	685b      	ldr	r3, [r3, #4]
 8000e48:	f3c3 1303 	ubfx	r3, r3, #4, #4
 8000e4c:	4a07      	ldr	r2, [pc, #28]	; (8000e6c <HAL_RCC_ClockConfig+0x170>)
 8000e4e:	5cd3      	ldrb	r3, [r2, r3]
 8000e50:	40d8      	lsrs	r0, r3
 8000e52:	4b07      	ldr	r3, [pc, #28]	; (8000e70 <HAL_RCC_ClockConfig+0x174>)
 8000e54:	6018      	str	r0, [r3, #0]
  HAL_InitTick (TICK_INT_PRIORITY);
 8000e56:	2000      	movs	r0, #0
 8000e58:	f7ff f9e4 	bl	8000224 <HAL_InitTick>
  return HAL_OK;
 8000e5c:	2000      	movs	r0, #0
 8000e5e:	bd70      	pop	{r4, r5, r6, pc}
        return HAL_ERROR;
 8000e60:	2001      	movs	r0, #1
 8000e62:	bd70      	pop	{r4, r5, r6, pc}
 8000e64:	40022000 	.word	0x40022000
 8000e68:	40021000 	.word	0x40021000
 8000e6c:	08002dec 	.word	0x08002dec
 8000e70:	20000008 	.word	0x20000008

08000e74 <HAL_RCC_GetHCLKFreq>:
}
 8000e74:	4b01      	ldr	r3, [pc, #4]	; (8000e7c <HAL_RCC_GetHCLKFreq+0x8>)
 8000e76:	6818      	ldr	r0, [r3, #0]
 8000e78:	4770      	bx	lr
 8000e7a:	bf00      	nop
 8000e7c:	20000008 	.word	0x20000008

08000e80 <HAL_RCC_GetPCLK1Freq>:
{
 8000e80:	b508      	push	{r3, lr}
  return (HAL_RCC_GetHCLKFreq() >> APBPrescTable[(RCC->CFGR & RCC_CFGR_PPRE1) >> RCC_CFGR_PPRE1_Pos]);
 8000e82:	f7ff fff7 	bl	8000e74 <HAL_RCC_GetHCLKFreq>
 8000e86:	4b04      	ldr	r3, [pc, #16]	; (8000e98 <HAL_RCC_GetPCLK1Freq+0x18>)
 8000e88:	685b      	ldr	r3, [r3, #4]
 8000e8a:	f3c3 2302 	ubfx	r3, r3, #8, #3
 8000e8e:	4a03      	ldr	r2, [pc, #12]	; (8000e9c <HAL_RCC_GetPCLK1Freq+0x1c>)
 8000e90:	5cd3      	ldrb	r3, [r2, r3]
}    
 8000e92:	40d8      	lsrs	r0, r3
 8000e94:	bd08      	pop	{r3, pc}
 8000e96:	bf00      	nop
 8000e98:	40021000 	.word	0x40021000
 8000e9c:	08002dfc 	.word	0x08002dfc

08000ea0 <HAL_RCC_GetPCLK2Freq>:
{
 8000ea0:	b508      	push	{r3, lr}
  return (HAL_RCC_GetHCLKFreq()>> APBPrescTable[(RCC->CFGR & RCC_CFGR_PPRE2) >> RCC_CFGR_PPRE2_Pos]);
 8000ea2:	f7ff ffe7 	bl	8000e74 <HAL_RCC_GetHCLKFreq>
 8000ea6:	4b04      	ldr	r3, [pc, #16]	; (8000eb8 <HAL_RCC_GetPCLK2Freq+0x18>)
 8000ea8:	685b      	ldr	r3, [r3, #4]
 8000eaa:	f3c3 23c2 	ubfx	r3, r3, #11, #3
 8000eae:	4a03      	ldr	r2, [pc, #12]	; (8000ebc <HAL_RCC_GetPCLK2Freq+0x1c>)
 8000eb0:	5cd3      	ldrb	r3, [r2, r3]
} 
 8000eb2:	40d8      	lsrs	r0, r3
 8000eb4:	bd08      	pop	{r3, pc}
 8000eb6:	bf00      	nop
 8000eb8:	40021000 	.word	0x40021000
 8000ebc:	08002dfc 	.word	0x08002dfc

08000ec0 <HAL_RCCEx_PeriphCLKConfig>:
  *         manually disable it.
  *
  * @retval HAL status
  */
HAL_StatusTypeDef HAL_RCCEx_PeriphCLKConfig(RCC_PeriphCLKInitTypeDef  *PeriphClkInit)
{
 8000ec0:	b570      	push	{r4, r5, r6, lr}
 8000ec2:	b082      	sub	sp, #8
 8000ec4:	4604      	mov	r4, r0

  /* Check the parameters */
  assert_param(IS_RCC_PERIPHCLOCK(PeriphClkInit->PeriphClockSelection));
  
  /*------------------------------- RTC/LCD Configuration ------------------------*/ 
  if ((((PeriphClkInit->PeriphClockSelection) & RCC_PERIPHCLK_RTC) == RCC_PERIPHCLK_RTC))
 8000ec6:	6803      	ldr	r3, [r0, #0]
 8000ec8:	f013 0f01 	tst.w	r3, #1
 8000ecc:	d034      	beq.n	8000f38 <HAL_RCCEx_PeriphCLKConfig+0x78>
    FlagStatus       pwrclkchanged = RESET;

    /* As soon as function is called to change RTC clock source, activation of the 
       power domain is done. */
    /* Requires to enable write access to Backup Domain of necessary */
    if(__HAL_RCC_PWR_IS_CLK_DISABLED())
 8000ece:	4b3e      	ldr	r3, [pc, #248]	; (8000fc8 <HAL_RCCEx_PeriphCLKConfig+0x108>)
 8000ed0:	69db      	ldr	r3, [r3, #28]
 8000ed2:	f013 5f80 	tst.w	r3, #268435456	; 0x10000000
 8000ed6:	d148      	bne.n	8000f6a <HAL_RCCEx_PeriphCLKConfig+0xaa>
    {
    __HAL_RCC_PWR_CLK_ENABLE();
 8000ed8:	4b3b      	ldr	r3, [pc, #236]	; (8000fc8 <HAL_RCCEx_PeriphCLKConfig+0x108>)
 8000eda:	69da      	ldr	r2, [r3, #28]
 8000edc:	f042 5280 	orr.w	r2, r2, #268435456	; 0x10000000
 8000ee0:	61da      	str	r2, [r3, #28]
 8000ee2:	69db      	ldr	r3, [r3, #28]
 8000ee4:	f003 5380 	and.w	r3, r3, #268435456	; 0x10000000
 8000ee8:	9301      	str	r3, [sp, #4]
 8000eea:	9b01      	ldr	r3, [sp, #4]
      pwrclkchanged = SET;
 8000eec:	2501      	movs	r5, #1
    }
    
    if(HAL_IS_BIT_CLR(PWR->CR, PWR_CR_DBP))
 8000eee:	4b37      	ldr	r3, [pc, #220]	; (8000fcc <HAL_RCCEx_PeriphCLKConfig+0x10c>)
 8000ef0:	681b      	ldr	r3, [r3, #0]
 8000ef2:	f413 7f80 	tst.w	r3, #256	; 0x100
 8000ef6:	d03a      	beq.n	8000f6e <HAL_RCCEx_PeriphCLKConfig+0xae>
        }
      }
    }
      
    /* Reset the Backup domain only if the RTC Clock source selection is modified from reset value */ 
    temp_reg = (RCC->BDCR & RCC_BDCR_RTCSEL);
 8000ef8:	4b33      	ldr	r3, [pc, #204]	; (8000fc8 <HAL_RCCEx_PeriphCLKConfig+0x108>)
 8000efa:	6a1b      	ldr	r3, [r3, #32]
    if((temp_reg != 0x00000000U) && (temp_reg != (PeriphClkInit->RTCClockSelection & RCC_BDCR_RTCSEL)))
 8000efc:	f413 7340 	ands.w	r3, r3, #768	; 0x300
 8000f00:	d011      	beq.n	8000f26 <HAL_RCCEx_PeriphCLKConfig+0x66>
 8000f02:	6862      	ldr	r2, [r4, #4]
 8000f04:	f402 7240 	and.w	r2, r2, #768	; 0x300
 8000f08:	4293      	cmp	r3, r2
 8000f0a:	d00c      	beq.n	8000f26 <HAL_RCCEx_PeriphCLKConfig+0x66>
    {
      /* Store the content of BDCR register before the reset of Backup Domain */
      temp_reg = (RCC->BDCR & ~(RCC_BDCR_RTCSEL));
 8000f0c:	4a2e      	ldr	r2, [pc, #184]	; (8000fc8 <HAL_RCCEx_PeriphCLKConfig+0x108>)
 8000f0e:	6a13      	ldr	r3, [r2, #32]
 8000f10:	f423 7040 	bic.w	r0, r3, #768	; 0x300
      /* RTC Clock selection can be changed only if the Backup Domain is reset */
      __HAL_RCC_BACKUPRESET_FORCE();
 8000f14:	492e      	ldr	r1, [pc, #184]	; (8000fd0 <HAL_RCCEx_PeriphCLKConfig+0x110>)
 8000f16:	2601      	movs	r6, #1
 8000f18:	600e      	str	r6, [r1, #0]
      __HAL_RCC_BACKUPRESET_RELEASE();
 8000f1a:	2600      	movs	r6, #0
 8000f1c:	600e      	str	r6, [r1, #0]
      /* Restore the Content of BDCR register */
      RCC->BDCR = temp_reg;
 8000f1e:	6210      	str	r0, [r2, #32]

      /* Wait for LSERDY if LSE was enabled */
      if (HAL_IS_BIT_SET(temp_reg, RCC_BDCR_LSEON))
 8000f20:	f013 0f01 	tst.w	r3, #1
 8000f24:	d137      	bne.n	8000f96 <HAL_RCCEx_PeriphCLKConfig+0xd6>
            return HAL_TIMEOUT;
          }      
        }  
      }
    }
    __HAL_RCC_RTC_CONFIG(PeriphClkInit->RTCClockSelection); 
 8000f26:	4a28      	ldr	r2, [pc, #160]	; (8000fc8 <HAL_RCCEx_PeriphCLKConfig+0x108>)
 8000f28:	6a13      	ldr	r3, [r2, #32]
 8000f2a:	f423 7340 	bic.w	r3, r3, #768	; 0x300
 8000f2e:	6861      	ldr	r1, [r4, #4]
 8000f30:	430b      	orrs	r3, r1
 8000f32:	6213      	str	r3, [r2, #32]

    /* Require to disable power clock if necessary */
    if(pwrclkchanged == SET)
 8000f34:	2d00      	cmp	r5, #0
 8000f36:	d13f      	bne.n	8000fb8 <HAL_RCCEx_PeriphCLKConfig+0xf8>
      __HAL_RCC_PWR_CLK_DISABLE();
    }
  }

  /*------------------------------ ADC clock Configuration ------------------*/ 
  if(((PeriphClkInit->PeriphClockSelection) & RCC_PERIPHCLK_ADC) == RCC_PERIPHCLK_ADC)
 8000f38:	6823      	ldr	r3, [r4, #0]
 8000f3a:	f013 0f02 	tst.w	r3, #2
 8000f3e:	d006      	beq.n	8000f4e <HAL_RCCEx_PeriphCLKConfig+0x8e>
  {
    /* Check the parameters */
    assert_param(IS_RCC_ADCPLLCLK_DIV(PeriphClkInit->AdcClockSelection));
    
    /* Configure the ADC clock source */
    __HAL_RCC_ADC_CONFIG(PeriphClkInit->AdcClockSelection);
 8000f40:	4a21      	ldr	r2, [pc, #132]	; (8000fc8 <HAL_RCCEx_PeriphCLKConfig+0x108>)
 8000f42:	6853      	ldr	r3, [r2, #4]
 8000f44:	f423 4340 	bic.w	r3, r3, #49152	; 0xc000
 8000f48:	68a1      	ldr	r1, [r4, #8]
 8000f4a:	430b      	orrs	r3, r1
 8000f4c:	6053      	str	r3, [r2, #4]

#if defined(STM32F102x6) || defined(STM32F102xB) || defined(STM32F103x6)\
 || defined(STM32F103xB) || defined(STM32F103xE) || defined(STM32F103xG)\
 || defined(STM32F105xC) || defined(STM32F107xC)
  /*------------------------------ USB clock Configuration ------------------*/ 
  if(((PeriphClkInit->PeriphClockSelection) & RCC_PERIPHCLK_USB) == RCC_PERIPHCLK_USB)
 8000f4e:	6823      	ldr	r3, [r4, #0]
 8000f50:	f013 0f10 	tst.w	r3, #16
 8000f54:	d035      	beq.n	8000fc2 <HAL_RCCEx_PeriphCLKConfig+0x102>
  {
    /* Check the parameters */
    assert_param(IS_RCC_USBPLLCLK_DIV(PeriphClkInit->UsbClockSelection));
    
    /* Configure the USB clock source */
    __HAL_RCC_USB_CONFIG(PeriphClkInit->UsbClockSelection);
 8000f56:	4a1c      	ldr	r2, [pc, #112]	; (8000fc8 <HAL_RCCEx_PeriphCLKConfig+0x108>)
 8000f58:	6853      	ldr	r3, [r2, #4]
 8000f5a:	f423 0380 	bic.w	r3, r3, #4194304	; 0x400000
 8000f5e:	6961      	ldr	r1, [r4, #20]
 8000f60:	430b      	orrs	r3, r1
 8000f62:	6053      	str	r3, [r2, #4]
  }
#endif /* STM32F102x6 || STM32F102xB || STM32F103x6 || STM32F103xB || STM32F103xE || STM32F103xG || STM32F105xC || STM32F107xC */

  return HAL_OK;
 8000f64:	2000      	movs	r0, #0
}
 8000f66:	b002      	add	sp, #8
 8000f68:	bd70      	pop	{r4, r5, r6, pc}
    FlagStatus       pwrclkchanged = RESET;
 8000f6a:	2500      	movs	r5, #0
 8000f6c:	e7bf      	b.n	8000eee <HAL_RCCEx_PeriphCLKConfig+0x2e>
      SET_BIT(PWR->CR, PWR_CR_DBP);
 8000f6e:	4a17      	ldr	r2, [pc, #92]	; (8000fcc <HAL_RCCEx_PeriphCLKConfig+0x10c>)
 8000f70:	6813      	ldr	r3, [r2, #0]
 8000f72:	f443 7380 	orr.w	r3, r3, #256	; 0x100
 8000f76:	6013      	str	r3, [r2, #0]
      tickstart = HAL_GetTick();
 8000f78:	f7ff f996 	bl	80002a8 <HAL_GetTick>
 8000f7c:	4606      	mov	r6, r0
      while(HAL_IS_BIT_CLR(PWR->CR, PWR_CR_DBP))
 8000f7e:	4b13      	ldr	r3, [pc, #76]	; (8000fcc <HAL_RCCEx_PeriphCLKConfig+0x10c>)
 8000f80:	681b      	ldr	r3, [r3, #0]
 8000f82:	f413 7f80 	tst.w	r3, #256	; 0x100
 8000f86:	d1b7      	bne.n	8000ef8 <HAL_RCCEx_PeriphCLKConfig+0x38>
        if((HAL_GetTick() - tickstart) > RCC_DBP_TIMEOUT_VALUE)
 8000f88:	f7ff f98e 	bl	80002a8 <HAL_GetTick>
 8000f8c:	1b80      	subs	r0, r0, r6
 8000f8e:	2864      	cmp	r0, #100	; 0x64
 8000f90:	d9f5      	bls.n	8000f7e <HAL_RCCEx_PeriphCLKConfig+0xbe>
          return HAL_TIMEOUT;
 8000f92:	2003      	movs	r0, #3
 8000f94:	e7e7      	b.n	8000f66 <HAL_RCCEx_PeriphCLKConfig+0xa6>
        tickstart = HAL_GetTick();
 8000f96:	f7ff f987 	bl	80002a8 <HAL_GetTick>
 8000f9a:	4606      	mov	r6, r0
        while(__HAL_RCC_GET_FLAG(RCC_FLAG_LSERDY) == RESET)
 8000f9c:	4b0a      	ldr	r3, [pc, #40]	; (8000fc8 <HAL_RCCEx_PeriphCLKConfig+0x108>)
 8000f9e:	6a1b      	ldr	r3, [r3, #32]
 8000fa0:	f013 0f02 	tst.w	r3, #2
 8000fa4:	d1bf      	bne.n	8000f26 <HAL_RCCEx_PeriphCLKConfig+0x66>
          if((HAL_GetTick() - tickstart) > RCC_LSE_TIMEOUT_VALUE)
 8000fa6:	f7ff f97f 	bl	80002a8 <HAL_GetTick>
 8000faa:	1b80      	subs	r0, r0, r6
 8000fac:	f241 3388 	movw	r3, #5000	; 0x1388
 8000fb0:	4298      	cmp	r0, r3
 8000fb2:	d9f3      	bls.n	8000f9c <HAL_RCCEx_PeriphCLKConfig+0xdc>
            return HAL_TIMEOUT;
 8000fb4:	2003      	movs	r0, #3
 8000fb6:	e7d6      	b.n	8000f66 <HAL_RCCEx_PeriphCLKConfig+0xa6>
      __HAL_RCC_PWR_CLK_DISABLE();
 8000fb8:	69d3      	ldr	r3, [r2, #28]
 8000fba:	f023 5380 	bic.w	r3, r3, #268435456	; 0x10000000
 8000fbe:	61d3      	str	r3, [r2, #28]
 8000fc0:	e7ba      	b.n	8000f38 <HAL_RCCEx_PeriphCLKConfig+0x78>
  return HAL_OK;
 8000fc2:	2000      	movs	r0, #0
 8000fc4:	e7cf      	b.n	8000f66 <HAL_RCCEx_PeriphCLKConfig+0xa6>
 8000fc6:	bf00      	nop
 8000fc8:	40021000 	.word	0x40021000
 8000fcc:	40007000 	.word	0x40007000
 8000fd0:	42420440 	.word	0x42420440

08000fd4 <TIM_OC1_SetConfig>:
  * @param  TIMx to select the TIM peripheral
  * @param  OC_Config : The ouput configuration structure
  * @retval None
  */
static void TIM_OC1_SetConfig(TIM_TypeDef *TIMx, TIM_OC_InitTypeDef *OC_Config)
{
 8000fd4:	b430      	push	{r4, r5}
  uint32_t tmpccmrx = 0U;
  uint32_t tmpccer = 0U;
  uint32_t tmpcr2 = 0U;

   /* Disable the Channel 1: Reset the CC1E Bit */
  TIMx->CCER &= ~TIM_CCER_CC1E;
 8000fd6:	6a03      	ldr	r3, [r0, #32]
 8000fd8:	f023 0301 	bic.w	r3, r3, #1
 8000fdc:	6203      	str	r3, [r0, #32]

  /* Get the TIMx CCER register value */
  tmpccer = TIMx->CCER;
 8000fde:	6a03      	ldr	r3, [r0, #32]
  /* Get the TIMx CR2 register value */
  tmpcr2 =  TIMx->CR2;
 8000fe0:	6844      	ldr	r4, [r0, #4]

  /* Get the TIMx CCMR1 register value */
  tmpccmrx = TIMx->CCMR1;
 8000fe2:	6982      	ldr	r2, [r0, #24]

  /* Reset the Output Compare Mode Bits */
  tmpccmrx &= ~TIM_CCMR1_OC1M;
  tmpccmrx &= ~TIM_CCMR1_CC1S;
 8000fe4:	f022 0273 	bic.w	r2, r2, #115	; 0x73
  /* Select the Output Compare Mode */
  tmpccmrx |= OC_Config->OCMode;
 8000fe8:	680d      	ldr	r5, [r1, #0]
 8000fea:	432a      	orrs	r2, r5

  /* Reset the Output Polarity level */
  tmpccer &= ~TIM_CCER_CC1P;
 8000fec:	f023 0302 	bic.w	r3, r3, #2
  /* Set the Output Compare Polarity */
  tmpccer |= OC_Config->OCPolarity;
 8000ff0:	688d      	ldr	r5, [r1, #8]
 8000ff2:	432b      	orrs	r3, r5

  if(IS_TIM_CCXN_INSTANCE(TIMx, TIM_CHANNEL_1))
 8000ff4:	4d11      	ldr	r5, [pc, #68]	; (800103c <TIM_OC1_SetConfig+0x68>)
 8000ff6:	42a8      	cmp	r0, r5
 8000ff8:	d011      	beq.n	800101e <TIM_OC1_SetConfig+0x4a>
 8000ffa:	f505 6500 	add.w	r5, r5, #2048	; 0x800
 8000ffe:	42a8      	cmp	r0, r5
 8001000:	d00d      	beq.n	800101e <TIM_OC1_SetConfig+0x4a>
    tmpccer |= OC_Config->OCNPolarity;
    /* Reset the Output N State */
    tmpccer &= ~TIM_CCER_CC1NE;
  }

  if(IS_TIM_BREAK_INSTANCE(TIMx))
 8001002:	4d0e      	ldr	r5, [pc, #56]	; (800103c <TIM_OC1_SetConfig+0x68>)
 8001004:	42a8      	cmp	r0, r5
 8001006:	d011      	beq.n	800102c <TIM_OC1_SetConfig+0x58>
 8001008:	f505 6500 	add.w	r5, r5, #2048	; 0x800
 800100c:	42a8      	cmp	r0, r5
 800100e:	d00d      	beq.n	800102c <TIM_OC1_SetConfig+0x58>
    tmpcr2 |= OC_Config->OCIdleState;
    /* Set the Output N Idle state */
    tmpcr2 |= OC_Config->OCNIdleState;
  }
  /* Write to TIMx CR2 */
  TIMx->CR2 = tmpcr2;
 8001010:	6044      	str	r4, [r0, #4]

  /* Write to TIMx CCMR1 */
  TIMx->CCMR1 = tmpccmrx;
 8001012:	6182      	str	r2, [r0, #24]

  /* Set the Capture Compare Register value */
  TIMx->CCR1 = OC_Config->Pulse;
 8001014:	684a      	ldr	r2, [r1, #4]
 8001016:	6342      	str	r2, [r0, #52]	; 0x34

  /* Write to TIMx CCER */
  TIMx->CCER = tmpccer;
 8001018:	6203      	str	r3, [r0, #32]
}
 800101a:	bc30      	pop	{r4, r5}
 800101c:	4770      	bx	lr
    tmpccer &= ~TIM_CCER_CC1NP;
 800101e:	f023 0308 	bic.w	r3, r3, #8
    tmpccer |= OC_Config->OCNPolarity;
 8001022:	68cd      	ldr	r5, [r1, #12]
 8001024:	432b      	orrs	r3, r5
    tmpccer &= ~TIM_CCER_CC1NE;
 8001026:	f023 0304 	bic.w	r3, r3, #4
 800102a:	e7ea      	b.n	8001002 <TIM_OC1_SetConfig+0x2e>
    tmpcr2 &= ~TIM_CR2_OIS1N;
 800102c:	f424 7440 	bic.w	r4, r4, #768	; 0x300
    tmpcr2 |= OC_Config->OCIdleState;
 8001030:	694d      	ldr	r5, [r1, #20]
 8001032:	432c      	orrs	r4, r5
    tmpcr2 |= OC_Config->OCNIdleState;
 8001034:	698d      	ldr	r5, [r1, #24]
 8001036:	432c      	orrs	r4, r5
 8001038:	e7ea      	b.n	8001010 <TIM_OC1_SetConfig+0x3c>
 800103a:	bf00      	nop
 800103c:	40012c00 	.word	0x40012c00

08001040 <TIM_OC3_SetConfig>:
  * @param  TIMx  to select the TIM peripheral
  * @param  OC_Config : The ouput configuration structure
  * @retval None
  */
static void TIM_OC3_SetConfig(TIM_TypeDef *TIMx, TIM_OC_InitTypeDef *OC_Config)
{
 8001040:	b430      	push	{r4, r5}
  uint32_t tmpccmrx = 0U;
  uint32_t tmpccer = 0U;
  uint32_t tmpcr2 = 0U;

  /* Disable the Channel 3: Reset the CC2E Bit */
  TIMx->CCER &= ~TIM_CCER_CC3E;
 8001042:	6a03      	ldr	r3, [r0, #32]
 8001044:	f423 7380 	bic.w	r3, r3, #256	; 0x100
 8001048:	6203      	str	r3, [r0, #32]

  /* Get the TIMx CCER register value */
  tmpccer = TIMx->CCER;
 800104a:	6a03      	ldr	r3, [r0, #32]
  /* Get the TIMx CR2 register value */
  tmpcr2 =  TIMx->CR2;
 800104c:	6844      	ldr	r4, [r0, #4]

  /* Get the TIMx CCMR2 register value */
  tmpccmrx = TIMx->CCMR2;
 800104e:	69c2      	ldr	r2, [r0, #28]

  /* Reset the Output Compare mode and Capture/Compare selection Bits */
  tmpccmrx &= ~TIM_CCMR2_OC3M;
  tmpccmrx &= ~TIM_CCMR2_CC3S;
 8001050:	f022 0273 	bic.w	r2, r2, #115	; 0x73
  /* Select the Output Compare Mode */
  tmpccmrx |= OC_Config->OCMode;
 8001054:	680d      	ldr	r5, [r1, #0]
 8001056:	432a      	orrs	r2, r5

  /* Reset the Output Polarity level */
  tmpccer &= ~TIM_CCER_CC3P;
 8001058:	f423 7300 	bic.w	r3, r3, #512	; 0x200
  /* Set the Output Compare Polarity */
  tmpccer |= (OC_Config->OCPolarity << 8U);
 800105c:	688d      	ldr	r5, [r1, #8]
 800105e:	ea43 2305 	orr.w	r3, r3, r5, lsl #8

  if(IS_TIM_CCXN_INSTANCE(TIMx, TIM_CHANNEL_3))
 8001062:	4d13      	ldr	r5, [pc, #76]	; (80010b0 <TIM_OC3_SetConfig+0x70>)
 8001064:	42a8      	cmp	r0, r5
 8001066:	d011      	beq.n	800108c <TIM_OC3_SetConfig+0x4c>
 8001068:	f505 6500 	add.w	r5, r5, #2048	; 0x800
 800106c:	42a8      	cmp	r0, r5
 800106e:	d00d      	beq.n	800108c <TIM_OC3_SetConfig+0x4c>
    tmpccer |= (OC_Config->OCNPolarity << 8U);
    /* Reset the Output N State */
    tmpccer &= ~TIM_CCER_CC3NE;
  }

  if(IS_TIM_BREAK_INSTANCE(TIMx))
 8001070:	4d0f      	ldr	r5, [pc, #60]	; (80010b0 <TIM_OC3_SetConfig+0x70>)
 8001072:	42a8      	cmp	r0, r5
 8001074:	d012      	beq.n	800109c <TIM_OC3_SetConfig+0x5c>
 8001076:	f505 6500 	add.w	r5, r5, #2048	; 0x800
 800107a:	42a8      	cmp	r0, r5
 800107c:	d00e      	beq.n	800109c <TIM_OC3_SetConfig+0x5c>
    /* Set the Output N Idle state */
    tmpcr2 |= (OC_Config->OCNIdleState << 4U);
  }

  /* Write to TIMx CR2 */
  TIMx->CR2 = tmpcr2;
 800107e:	6044      	str	r4, [r0, #4]

  /* Write to TIMx CCMR2 */
  TIMx->CCMR2 = tmpccmrx;
 8001080:	61c2      	str	r2, [r0, #28]

  /* Set the Capture Compare Register value */
  TIMx->CCR3 = OC_Config->Pulse;
 8001082:	684a      	ldr	r2, [r1, #4]
 8001084:	63c2      	str	r2, [r0, #60]	; 0x3c

  /* Write to TIMx CCER */
  TIMx->CCER = tmpccer;
 8001086:	6203      	str	r3, [r0, #32]
}
 8001088:	bc30      	pop	{r4, r5}
 800108a:	4770      	bx	lr
    tmpccer &= ~TIM_CCER_CC3NP;
 800108c:	f423 6300 	bic.w	r3, r3, #2048	; 0x800
    tmpccer |= (OC_Config->OCNPolarity << 8U);
 8001090:	68cd      	ldr	r5, [r1, #12]
 8001092:	ea43 2305 	orr.w	r3, r3, r5, lsl #8
    tmpccer &= ~TIM_CCER_CC3NE;
 8001096:	f423 6380 	bic.w	r3, r3, #1024	; 0x400
 800109a:	e7e9      	b.n	8001070 <TIM_OC3_SetConfig+0x30>
    tmpcr2 &= ~TIM_CR2_OIS3N;
 800109c:	f424 5440 	bic.w	r4, r4, #12288	; 0x3000
    tmpcr2 |= (OC_Config->OCIdleState << 4U);
 80010a0:	694d      	ldr	r5, [r1, #20]
 80010a2:	ea44 1405 	orr.w	r4, r4, r5, lsl #4
    tmpcr2 |= (OC_Config->OCNIdleState << 4U);
 80010a6:	698d      	ldr	r5, [r1, #24]
 80010a8:	ea44 1405 	orr.w	r4, r4, r5, lsl #4
 80010ac:	e7e7      	b.n	800107e <TIM_OC3_SetConfig+0x3e>
 80010ae:	bf00      	nop
 80010b0:	40012c00 	.word	0x40012c00

080010b4 <TIM_OC4_SetConfig>:
  * @param  TIMx  to select the TIM peripheral
  * @param  OC_Config : The ouput configuration structure
  * @retval None
  */
static void TIM_OC4_SetConfig(TIM_TypeDef *TIMx, TIM_OC_InitTypeDef *OC_Config)
{
 80010b4:	b430      	push	{r4, r5}
  uint32_t tmpccmrx = 0U;
  uint32_t tmpccer = 0U;
  uint32_t tmpcr2 = 0U;

  /* Disable the Channel 4: Reset the CC4E Bit */
  TIMx->CCER &= ~TIM_CCER_CC4E;
 80010b6:	6a03      	ldr	r3, [r0, #32]
 80010b8:	f423 5380 	bic.w	r3, r3, #4096	; 0x1000
 80010bc:	6203      	str	r3, [r0, #32]

  /* Get the TIMx CCER register value */
  tmpccer = TIMx->CCER;
 80010be:	6a03      	ldr	r3, [r0, #32]
  /* Get the TIMx CR2 register value */
  tmpcr2 =  TIMx->CR2;
 80010c0:	6844      	ldr	r4, [r0, #4]

  /* Get the TIMx CCMR2 register value */
  tmpccmrx = TIMx->CCMR2;
 80010c2:	69c2      	ldr	r2, [r0, #28]

  /* Reset the Output Compare mode and Capture/Compare selection Bits */
  tmpccmrx &= ~TIM_CCMR2_OC4M;
  tmpccmrx &= ~TIM_CCMR2_CC4S;
 80010c4:	f422 42e6 	bic.w	r2, r2, #29440	; 0x7300

  /* Select the Output Compare Mode */
  tmpccmrx |= (OC_Config->OCMode << 8U);
 80010c8:	680d      	ldr	r5, [r1, #0]
 80010ca:	ea42 2205 	orr.w	r2, r2, r5, lsl #8

  /* Reset the Output Polarity level */
  tmpccer &= ~TIM_CCER_CC4P;
 80010ce:	f423 5300 	bic.w	r3, r3, #8192	; 0x2000
  /* Set the Output Compare Polarity */
  tmpccer |= (OC_Config->OCPolarity << 12U);
 80010d2:	688d      	ldr	r5, [r1, #8]
 80010d4:	ea43 3305 	orr.w	r3, r3, r5, lsl #12

  if(IS_TIM_BREAK_INSTANCE(TIMx))
 80010d8:	4d09      	ldr	r5, [pc, #36]	; (8001100 <TIM_OC4_SetConfig+0x4c>)
 80010da:	42a8      	cmp	r0, r5
 80010dc:	d00a      	beq.n	80010f4 <TIM_OC4_SetConfig+0x40>
 80010de:	f505 6500 	add.w	r5, r5, #2048	; 0x800
 80010e2:	42a8      	cmp	r0, r5
 80010e4:	d006      	beq.n	80010f4 <TIM_OC4_SetConfig+0x40>
    /* Set the Output Idle state */
    tmpcr2 |= (OC_Config->OCIdleState << 6);
  }

  /* Write to TIMx CR2 */
  TIMx->CR2 = tmpcr2;
 80010e6:	6044      	str	r4, [r0, #4]

  /* Write to TIMx CCMR2 */
  TIMx->CCMR2 = tmpccmrx;
 80010e8:	61c2      	str	r2, [r0, #28]

  /* Set the Capture Compare Register value */
  TIMx->CCR4 = OC_Config->Pulse;
 80010ea:	684a      	ldr	r2, [r1, #4]
 80010ec:	6402      	str	r2, [r0, #64]	; 0x40

  /* Write to TIMx CCER */
  TIMx->CCER = tmpccer;
 80010ee:	6203      	str	r3, [r0, #32]
}
 80010f0:	bc30      	pop	{r4, r5}
 80010f2:	4770      	bx	lr
    tmpcr2 &= ~TIM_CR2_OIS4;
 80010f4:	f424 4480 	bic.w	r4, r4, #16384	; 0x4000
    tmpcr2 |= (OC_Config->OCIdleState << 6);
 80010f8:	694d      	ldr	r5, [r1, #20]
 80010fa:	ea44 1485 	orr.w	r4, r4, r5, lsl #6
 80010fe:	e7f2      	b.n	80010e6 <TIM_OC4_SetConfig+0x32>
 8001100:	40012c00 	.word	0x40012c00

08001104 <TIM_TI1_ConfigInputStage>:
  * @param  TIM_ICFilter : Specifies the Input Capture Filter.
  *          This parameter must be a value between 0x00 and 0x0F.
  * @retval None
  */
static void TIM_TI1_ConfigInputStage(TIM_TypeDef *TIMx, uint32_t TIM_ICPolarity, uint32_t TIM_ICFilter)
{
 8001104:	b410      	push	{r4}
  uint32_t tmpccmr1 = 0U;
  uint32_t tmpccer = 0U;

  /* Disable the Channel 1: Reset the CC1E Bit */
  tmpccer = TIMx->CCER;
 8001106:	6a03      	ldr	r3, [r0, #32]
  TIMx->CCER &= ~TIM_CCER_CC1E;
 8001108:	6a04      	ldr	r4, [r0, #32]
 800110a:	f024 0401 	bic.w	r4, r4, #1
 800110e:	6204      	str	r4, [r0, #32]
  tmpccmr1 = TIMx->CCMR1;
 8001110:	6984      	ldr	r4, [r0, #24]

  /* Set the filter */
  tmpccmr1 &= ~TIM_CCMR1_IC1F;
 8001112:	f024 04f0 	bic.w	r4, r4, #240	; 0xf0
  tmpccmr1 |= (TIM_ICFilter << 4U);
 8001116:	ea44 1202 	orr.w	r2, r4, r2, lsl #4

  /* Select the Polarity and set the CC1E Bit */
  tmpccer &= ~(TIM_CCER_CC1P | TIM_CCER_CC1NP);
 800111a:	f023 030a 	bic.w	r3, r3, #10
  tmpccer |= TIM_ICPolarity;
 800111e:	430b      	orrs	r3, r1

  /* Write to TIMx CCMR1 and CCER registers */
  TIMx->CCMR1 = tmpccmr1;
 8001120:	6182      	str	r2, [r0, #24]
  TIMx->CCER = tmpccer;
 8001122:	6203      	str	r3, [r0, #32]
}
 8001124:	bc10      	pop	{r4}
 8001126:	4770      	bx	lr

08001128 <TIM_TI2_ConfigInputStage>:
  * @param  TIM_ICFilter : Specifies the Input Capture Filter.
  *          This parameter must be a value between 0x00 and 0x0F.
  * @retval None
  */
static void TIM_TI2_ConfigInputStage(TIM_TypeDef *TIMx, uint32_t TIM_ICPolarity, uint32_t TIM_ICFilter)
{
 8001128:	b410      	push	{r4}
  uint32_t tmpccmr1 = 0U;
  uint32_t tmpccer = 0U;

  /* Disable the Channel 2: Reset the CC2E Bit */
  TIMx->CCER &= ~TIM_CCER_CC2E;
 800112a:	6a03      	ldr	r3, [r0, #32]
 800112c:	f023 0310 	bic.w	r3, r3, #16
 8001130:	6203      	str	r3, [r0, #32]
  tmpccmr1 = TIMx->CCMR1;
 8001132:	6984      	ldr	r4, [r0, #24]
  tmpccer = TIMx->CCER;
 8001134:	6a03      	ldr	r3, [r0, #32]

  /* Set the filter */
  tmpccmr1 &= ~TIM_CCMR1_IC2F;
 8001136:	f424 4470 	bic.w	r4, r4, #61440	; 0xf000
  tmpccmr1 |= (TIM_ICFilter << 12U);
 800113a:	ea44 3202 	orr.w	r2, r4, r2, lsl #12

  /* Select the Polarity and set the CC2E Bit */
  tmpccer &= ~(TIM_CCER_CC2P | TIM_CCER_CC2NP);
 800113e:	f023 03a0 	bic.w	r3, r3, #160	; 0xa0
  tmpccer |= (TIM_ICPolarity << 4U);
 8001142:	ea43 1301 	orr.w	r3, r3, r1, lsl #4

  /* Write to TIMx CCMR1 and CCER registers */
  TIMx->CCMR1 = tmpccmr1 ;
 8001146:	6182      	str	r2, [r0, #24]
  TIMx->CCER = tmpccer;
 8001148:	6203      	str	r3, [r0, #32]
}
 800114a:	bc10      	pop	{r4}
 800114c:	4770      	bx	lr

0800114e <TIM_ITRx_SetConfig>:
static void TIM_ITRx_SetConfig(TIM_TypeDef *TIMx, uint16_t InputTriggerSource)
{
  uint32_t tmpsmcr = 0U;

   /* Get the TIMx SMCR register value */
   tmpsmcr = TIMx->SMCR;
 800114e:	6883      	ldr	r3, [r0, #8]
   /* Reset the TS Bits */
   tmpsmcr &= ~TIM_SMCR_TS;
 8001150:	f023 0370 	bic.w	r3, r3, #112	; 0x70
   /* Set the Input Trigger source and the slave mode*/
   tmpsmcr |= InputTriggerSource | TIM_SLAVEMODE_EXTERNAL1;
 8001154:	f041 0107 	orr.w	r1, r1, #7
 8001158:	430b      	orrs	r3, r1
   /* Write to TIMx SMCR */
   TIMx->SMCR = tmpsmcr;
 800115a:	6083      	str	r3, [r0, #8]
 800115c:	4770      	bx	lr

0800115e <TIM_ETR_SetConfig>:
  *          This parameter must be a value between 0x00 and 0x0F
  * @retval None
  */
static void TIM_ETR_SetConfig(TIM_TypeDef* TIMx, uint32_t TIM_ExtTRGPrescaler,
                       uint32_t TIM_ExtTRGPolarity, uint32_t ExtTRGFilter)
{
 800115e:	b410      	push	{r4}
  uint32_t tmpsmcr = 0U;

  tmpsmcr = TIMx->SMCR;
 8001160:	6884      	ldr	r4, [r0, #8]

  /* Reset the ETR Bits */
  tmpsmcr &= ~(TIM_SMCR_ETF | TIM_SMCR_ETPS | TIM_SMCR_ECE | TIM_SMCR_ETP);
 8001162:	f424 447f 	bic.w	r4, r4, #65280	; 0xff00

  /* Set the Prescaler, the Filter value and the Polarity */
  tmpsmcr |= (uint32_t)(TIM_ExtTRGPrescaler | (TIM_ExtTRGPolarity | (ExtTRGFilter << 8U)));
 8001166:	ea42 2303 	orr.w	r3, r2, r3, lsl #8
 800116a:	4319      	orrs	r1, r3
 800116c:	430c      	orrs	r4, r1

  /* Write to TIMx SMCR */
  TIMx->SMCR = tmpsmcr;
 800116e:	6084      	str	r4, [r0, #8]
}
 8001170:	bc10      	pop	{r4}
 8001172:	4770      	bx	lr

08001174 <HAL_TIM_ConfigClockSource>:
  __HAL_LOCK(htim);
 8001174:	f890 303c 	ldrb.w	r3, [r0, #60]	; 0x3c
 8001178:	2b01      	cmp	r3, #1
 800117a:	d07d      	beq.n	8001278 <HAL_TIM_ConfigClockSource+0x104>
{
 800117c:	b510      	push	{r4, lr}
 800117e:	4604      	mov	r4, r0
  __HAL_LOCK(htim);
 8001180:	2301      	movs	r3, #1
 8001182:	f880 303c 	strb.w	r3, [r0, #60]	; 0x3c
  htim->State = HAL_TIM_STATE_BUSY;
 8001186:	2302      	movs	r3, #2
 8001188:	f880 303d 	strb.w	r3, [r0, #61]	; 0x3d
  tmpsmcr = htim->Instance->SMCR;
 800118c:	6802      	ldr	r2, [r0, #0]
 800118e:	6893      	ldr	r3, [r2, #8]
  tmpsmcr &= ~(TIM_SMCR_ETF | TIM_SMCR_ETPS | TIM_SMCR_ECE | TIM_SMCR_ETP);
 8001190:	f423 437f 	bic.w	r3, r3, #65280	; 0xff00
 8001194:	f023 0377 	bic.w	r3, r3, #119	; 0x77
  htim->Instance->SMCR = tmpsmcr;
 8001198:	6093      	str	r3, [r2, #8]
  switch (sClockSourceConfig->ClockSource)
 800119a:	680b      	ldr	r3, [r1, #0]
 800119c:	2b40      	cmp	r3, #64	; 0x40
 800119e:	d057      	beq.n	8001250 <HAL_TIM_ConfigClockSource+0xdc>
 80011a0:	d910      	bls.n	80011c4 <HAL_TIM_ConfigClockSource+0x50>
 80011a2:	2b70      	cmp	r3, #112	; 0x70
 80011a4:	d03e      	beq.n	8001224 <HAL_TIM_ConfigClockSource+0xb0>
 80011a6:	d81f      	bhi.n	80011e8 <HAL_TIM_ConfigClockSource+0x74>
 80011a8:	2b50      	cmp	r3, #80	; 0x50
 80011aa:	d047      	beq.n	800123c <HAL_TIM_ConfigClockSource+0xc8>
 80011ac:	2b60      	cmp	r3, #96	; 0x60
 80011ae:	d132      	bne.n	8001216 <HAL_TIM_ConfigClockSource+0xa2>
      TIM_TI2_ConfigInputStage(htim->Instance,
 80011b0:	68ca      	ldr	r2, [r1, #12]
 80011b2:	6849      	ldr	r1, [r1, #4]
 80011b4:	6800      	ldr	r0, [r0, #0]
 80011b6:	f7ff ffb7 	bl	8001128 <TIM_TI2_ConfigInputStage>
      TIM_ITRx_SetConfig(htim->Instance, TIM_CLOCKSOURCE_TI2);
 80011ba:	2160      	movs	r1, #96	; 0x60
 80011bc:	6820      	ldr	r0, [r4, #0]
 80011be:	f7ff ffc6 	bl	800114e <TIM_ITRx_SetConfig>
    break;
 80011c2:	e028      	b.n	8001216 <HAL_TIM_ConfigClockSource+0xa2>
  switch (sClockSourceConfig->ClockSource)
 80011c4:	2b10      	cmp	r3, #16
 80011c6:	d04d      	beq.n	8001264 <HAL_TIM_ConfigClockSource+0xf0>
 80011c8:	d908      	bls.n	80011dc <HAL_TIM_ConfigClockSource+0x68>
 80011ca:	2b20      	cmp	r3, #32
 80011cc:	d04f      	beq.n	800126e <HAL_TIM_ConfigClockSource+0xfa>
 80011ce:	2b30      	cmp	r3, #48	; 0x30
 80011d0:	d121      	bne.n	8001216 <HAL_TIM_ConfigClockSource+0xa2>
      TIM_ITRx_SetConfig(htim->Instance, TIM_CLOCKSOURCE_ITR3);
 80011d2:	2130      	movs	r1, #48	; 0x30
 80011d4:	6800      	ldr	r0, [r0, #0]
 80011d6:	f7ff ffba 	bl	800114e <TIM_ITRx_SetConfig>
    break;
 80011da:	e01c      	b.n	8001216 <HAL_TIM_ConfigClockSource+0xa2>
  switch (sClockSourceConfig->ClockSource)
 80011dc:	b9db      	cbnz	r3, 8001216 <HAL_TIM_ConfigClockSource+0xa2>
      TIM_ITRx_SetConfig(htim->Instance, TIM_CLOCKSOURCE_ITR0);
 80011de:	2100      	movs	r1, #0
 80011e0:	6800      	ldr	r0, [r0, #0]
 80011e2:	f7ff ffb4 	bl	800114e <TIM_ITRx_SetConfig>
    break;
 80011e6:	e016      	b.n	8001216 <HAL_TIM_ConfigClockSource+0xa2>
  switch (sClockSourceConfig->ClockSource)
 80011e8:	f5b3 5f80 	cmp.w	r3, #4096	; 0x1000
 80011ec:	d00e      	beq.n	800120c <HAL_TIM_ConfigClockSource+0x98>
 80011ee:	f5b3 5f00 	cmp.w	r3, #8192	; 0x2000
 80011f2:	d110      	bne.n	8001216 <HAL_TIM_ConfigClockSource+0xa2>
      TIM_ETR_SetConfig(htim->Instance,
 80011f4:	68cb      	ldr	r3, [r1, #12]
 80011f6:	684a      	ldr	r2, [r1, #4]
 80011f8:	6889      	ldr	r1, [r1, #8]
 80011fa:	6800      	ldr	r0, [r0, #0]
 80011fc:	f7ff ffaf 	bl	800115e <TIM_ETR_SetConfig>
      htim->Instance->SMCR |= TIM_SMCR_ECE;
 8001200:	6822      	ldr	r2, [r4, #0]
 8001202:	6893      	ldr	r3, [r2, #8]
 8001204:	f443 4380 	orr.w	r3, r3, #16384	; 0x4000
 8001208:	6093      	str	r3, [r2, #8]
    break;
 800120a:	e004      	b.n	8001216 <HAL_TIM_ConfigClockSource+0xa2>
      htim->Instance->SMCR &= ~TIM_SMCR_SMS;
 800120c:	6802      	ldr	r2, [r0, #0]
 800120e:	6893      	ldr	r3, [r2, #8]
 8001210:	f023 0307 	bic.w	r3, r3, #7
 8001214:	6093      	str	r3, [r2, #8]
  htim->State = HAL_TIM_STATE_READY;
 8001216:	2301      	movs	r3, #1
 8001218:	f884 303d 	strb.w	r3, [r4, #61]	; 0x3d
  __HAL_UNLOCK(htim);
 800121c:	2000      	movs	r0, #0
 800121e:	f884 003c 	strb.w	r0, [r4, #60]	; 0x3c
  return HAL_OK;
 8001222:	bd10      	pop	{r4, pc}
      TIM_ETR_SetConfig(htim->Instance,
 8001224:	68cb      	ldr	r3, [r1, #12]
 8001226:	684a      	ldr	r2, [r1, #4]
 8001228:	6889      	ldr	r1, [r1, #8]
 800122a:	6800      	ldr	r0, [r0, #0]
 800122c:	f7ff ff97 	bl	800115e <TIM_ETR_SetConfig>
      tmpsmcr = htim->Instance->SMCR;
 8001230:	6822      	ldr	r2, [r4, #0]
 8001232:	6893      	ldr	r3, [r2, #8]
      tmpsmcr |= (TIM_SLAVEMODE_EXTERNAL1 | TIM_CLOCKSOURCE_ETRMODE1);
 8001234:	f043 0377 	orr.w	r3, r3, #119	; 0x77
      htim->Instance->SMCR = tmpsmcr;
 8001238:	6093      	str	r3, [r2, #8]
    break;
 800123a:	e7ec      	b.n	8001216 <HAL_TIM_ConfigClockSource+0xa2>
      TIM_TI1_ConfigInputStage(htim->Instance,
 800123c:	68ca      	ldr	r2, [r1, #12]
 800123e:	6849      	ldr	r1, [r1, #4]
 8001240:	6800      	ldr	r0, [r0, #0]
 8001242:	f7ff ff5f 	bl	8001104 <TIM_TI1_ConfigInputStage>
      TIM_ITRx_SetConfig(htim->Instance, TIM_CLOCKSOURCE_TI1);
 8001246:	2150      	movs	r1, #80	; 0x50
 8001248:	6820      	ldr	r0, [r4, #0]
 800124a:	f7ff ff80 	bl	800114e <TIM_ITRx_SetConfig>
    break;
 800124e:	e7e2      	b.n	8001216 <HAL_TIM_ConfigClockSource+0xa2>
      TIM_TI1_ConfigInputStage(htim->Instance,
 8001250:	68ca      	ldr	r2, [r1, #12]
 8001252:	6849      	ldr	r1, [r1, #4]
 8001254:	6800      	ldr	r0, [r0, #0]
 8001256:	f7ff ff55 	bl	8001104 <TIM_TI1_ConfigInputStage>
      TIM_ITRx_SetConfig(htim->Instance, TIM_CLOCKSOURCE_TI1ED);
 800125a:	2140      	movs	r1, #64	; 0x40
 800125c:	6820      	ldr	r0, [r4, #0]
 800125e:	f7ff ff76 	bl	800114e <TIM_ITRx_SetConfig>
    break;
 8001262:	e7d8      	b.n	8001216 <HAL_TIM_ConfigClockSource+0xa2>
      TIM_ITRx_SetConfig(htim->Instance, TIM_CLOCKSOURCE_ITR1);
 8001264:	2110      	movs	r1, #16
 8001266:	6800      	ldr	r0, [r0, #0]
 8001268:	f7ff ff71 	bl	800114e <TIM_ITRx_SetConfig>
    break;
 800126c:	e7d3      	b.n	8001216 <HAL_TIM_ConfigClockSource+0xa2>
      TIM_ITRx_SetConfig(htim->Instance, TIM_CLOCKSOURCE_ITR2);
 800126e:	2120      	movs	r1, #32
 8001270:	6800      	ldr	r0, [r0, #0]
 8001272:	f7ff ff6c 	bl	800114e <TIM_ITRx_SetConfig>
    break;
 8001276:	e7ce      	b.n	8001216 <HAL_TIM_ConfigClockSource+0xa2>
  __HAL_LOCK(htim);
 8001278:	2002      	movs	r0, #2
 800127a:	4770      	bx	lr

0800127c <TIM_Base_SetConfig>:
  tmpcr1 = TIMx->CR1;
 800127c:	6803      	ldr	r3, [r0, #0]
  if (IS_TIM_COUNTER_MODE_SELECT_INSTANCE(TIMx))
 800127e:	4a25      	ldr	r2, [pc, #148]	; (8001314 <TIM_Base_SetConfig+0x98>)
 8001280:	4290      	cmp	r0, r2
 8001282:	d012      	beq.n	80012aa <TIM_Base_SetConfig+0x2e>
 8001284:	f502 6200 	add.w	r2, r2, #2048	; 0x800
 8001288:	4290      	cmp	r0, r2
 800128a:	d00e      	beq.n	80012aa <TIM_Base_SetConfig+0x2e>
 800128c:	f1b0 4f80 	cmp.w	r0, #1073741824	; 0x40000000
 8001290:	d00b      	beq.n	80012aa <TIM_Base_SetConfig+0x2e>
 8001292:	f5a2 3298 	sub.w	r2, r2, #77824	; 0x13000
 8001296:	4290      	cmp	r0, r2
 8001298:	d007      	beq.n	80012aa <TIM_Base_SetConfig+0x2e>
 800129a:	f502 6280 	add.w	r2, r2, #1024	; 0x400
 800129e:	4290      	cmp	r0, r2
 80012a0:	d003      	beq.n	80012aa <TIM_Base_SetConfig+0x2e>
 80012a2:	f502 6280 	add.w	r2, r2, #1024	; 0x400
 80012a6:	4290      	cmp	r0, r2
 80012a8:	d103      	bne.n	80012b2 <TIM_Base_SetConfig+0x36>
    tmpcr1 &= ~(TIM_CR1_DIR | TIM_CR1_CMS);
 80012aa:	f023 0370 	bic.w	r3, r3, #112	; 0x70
    tmpcr1 |= Structure->CounterMode;
 80012ae:	684a      	ldr	r2, [r1, #4]
 80012b0:	4313      	orrs	r3, r2
  if(IS_TIM_CLOCK_DIVISION_INSTANCE(TIMx))
 80012b2:	4a18      	ldr	r2, [pc, #96]	; (8001314 <TIM_Base_SetConfig+0x98>)
 80012b4:	4290      	cmp	r0, r2
 80012b6:	d012      	beq.n	80012de <TIM_Base_SetConfig+0x62>
 80012b8:	f502 6200 	add.w	r2, r2, #2048	; 0x800
 80012bc:	4290      	cmp	r0, r2
 80012be:	d00e      	beq.n	80012de <TIM_Base_SetConfig+0x62>
 80012c0:	f1b0 4f80 	cmp.w	r0, #1073741824	; 0x40000000
 80012c4:	d00b      	beq.n	80012de <TIM_Base_SetConfig+0x62>
 80012c6:	f5a2 3298 	sub.w	r2, r2, #77824	; 0x13000
 80012ca:	4290      	cmp	r0, r2
 80012cc:	d007      	beq.n	80012de <TIM_Base_SetConfig+0x62>
 80012ce:	f502 6280 	add.w	r2, r2, #1024	; 0x400
 80012d2:	4290      	cmp	r0, r2
 80012d4:	d003      	beq.n	80012de <TIM_Base_SetConfig+0x62>
 80012d6:	f502 6280 	add.w	r2, r2, #1024	; 0x400
 80012da:	4290      	cmp	r0, r2
 80012dc:	d103      	bne.n	80012e6 <TIM_Base_SetConfig+0x6a>
    tmpcr1 &= ~TIM_CR1_CKD;
 80012de:	f423 7340 	bic.w	r3, r3, #768	; 0x300
    tmpcr1 |= (uint32_t)Structure->ClockDivision;
 80012e2:	68ca      	ldr	r2, [r1, #12]
 80012e4:	4313      	orrs	r3, r2
  tmpcr1 &= ~TIM_CR1_ARPE;
 80012e6:	f023 0380 	bic.w	r3, r3, #128	; 0x80
  tmpcr1 |= (uint32_t)Structure->AutoReloadPreload;
 80012ea:	694a      	ldr	r2, [r1, #20]
 80012ec:	4313      	orrs	r3, r2
  TIMx->CR1 = tmpcr1;
 80012ee:	6003      	str	r3, [r0, #0]
  TIMx->ARR = (uint32_t)Structure->Period ;
 80012f0:	688b      	ldr	r3, [r1, #8]
 80012f2:	62c3      	str	r3, [r0, #44]	; 0x2c
  TIMx->PSC = (uint32_t)Structure->Prescaler;
 80012f4:	680b      	ldr	r3, [r1, #0]
 80012f6:	6283      	str	r3, [r0, #40]	; 0x28
  if (IS_TIM_REPETITION_COUNTER_INSTANCE(TIMx))
 80012f8:	4b06      	ldr	r3, [pc, #24]	; (8001314 <TIM_Base_SetConfig+0x98>)
 80012fa:	4298      	cmp	r0, r3
 80012fc:	d006      	beq.n	800130c <TIM_Base_SetConfig+0x90>
 80012fe:	f503 6300 	add.w	r3, r3, #2048	; 0x800
 8001302:	4298      	cmp	r0, r3
 8001304:	d002      	beq.n	800130c <TIM_Base_SetConfig+0x90>
  TIMx->EGR = TIM_EGR_UG;
 8001306:	2301      	movs	r3, #1
 8001308:	6143      	str	r3, [r0, #20]
 800130a:	4770      	bx	lr
    TIMx->RCR = Structure->RepetitionCounter;
 800130c:	690b      	ldr	r3, [r1, #16]
 800130e:	6303      	str	r3, [r0, #48]	; 0x30
 8001310:	e7f9      	b.n	8001306 <TIM_Base_SetConfig+0x8a>
 8001312:	bf00      	nop
 8001314:	40012c00 	.word	0x40012c00

08001318 <HAL_TIM_Base_Init>:
  if(htim == NULL)
 8001318:	b1a8      	cbz	r0, 8001346 <HAL_TIM_Base_Init+0x2e>
{
 800131a:	b510      	push	{r4, lr}
 800131c:	4604      	mov	r4, r0
  if(htim->State == HAL_TIM_STATE_RESET)
 800131e:	f890 303d 	ldrb.w	r3, [r0, #61]	; 0x3d
 8001322:	b15b      	cbz	r3, 800133c <HAL_TIM_Base_Init+0x24>
  htim->State= HAL_TIM_STATE_BUSY;
 8001324:	2302      	movs	r3, #2
 8001326:	f884 303d 	strb.w	r3, [r4, #61]	; 0x3d
  TIM_Base_SetConfig(htim->Instance, &htim->Init);
 800132a:	1d21      	adds	r1, r4, #4
 800132c:	6820      	ldr	r0, [r4, #0]
 800132e:	f7ff ffa5 	bl	800127c <TIM_Base_SetConfig>
  htim->State= HAL_TIM_STATE_READY;
 8001332:	2301      	movs	r3, #1
 8001334:	f884 303d 	strb.w	r3, [r4, #61]	; 0x3d
  return HAL_OK;
 8001338:	2000      	movs	r0, #0
 800133a:	bd10      	pop	{r4, pc}
    htim->Lock = HAL_UNLOCKED;
 800133c:	f880 303c 	strb.w	r3, [r0, #60]	; 0x3c
    HAL_TIM_Base_MspInit(htim);
 8001340:	f000 ff88 	bl	8002254 <HAL_TIM_Base_MspInit>
 8001344:	e7ee      	b.n	8001324 <HAL_TIM_Base_Init+0xc>
    return HAL_ERROR;
 8001346:	2001      	movs	r0, #1
 8001348:	4770      	bx	lr

0800134a <HAL_TIM_PWM_Init>:
  if(htim == NULL)
 800134a:	b1a8      	cbz	r0, 8001378 <HAL_TIM_PWM_Init+0x2e>
{
 800134c:	b510      	push	{r4, lr}
 800134e:	4604      	mov	r4, r0
  if(htim->State == HAL_TIM_STATE_RESET)
 8001350:	f890 303d 	ldrb.w	r3, [r0, #61]	; 0x3d
 8001354:	b15b      	cbz	r3, 800136e <HAL_TIM_PWM_Init+0x24>
  htim->State= HAL_TIM_STATE_BUSY;
 8001356:	2302      	movs	r3, #2
 8001358:	f884 303d 	strb.w	r3, [r4, #61]	; 0x3d
  TIM_Base_SetConfig(htim->Instance, &htim->Init);
 800135c:	1d21      	adds	r1, r4, #4
 800135e:	6820      	ldr	r0, [r4, #0]
 8001360:	f7ff ff8c 	bl	800127c <TIM_Base_SetConfig>
  htim->State= HAL_TIM_STATE_READY;
 8001364:	2301      	movs	r3, #1
 8001366:	f884 303d 	strb.w	r3, [r4, #61]	; 0x3d
  return HAL_OK;
 800136a:	2000      	movs	r0, #0
 800136c:	bd10      	pop	{r4, pc}
    htim->Lock = HAL_UNLOCKED;
 800136e:	f880 303c 	strb.w	r3, [r0, #60]	; 0x3c
    HAL_TIM_PWM_MspInit(htim);
 8001372:	f000 ff39 	bl	80021e8 <HAL_TIM_PWM_MspInit>
 8001376:	e7ee      	b.n	8001356 <HAL_TIM_PWM_Init+0xc>
    return HAL_ERROR;
 8001378:	2001      	movs	r0, #1
 800137a:	4770      	bx	lr

0800137c <TIM_OC2_SetConfig>:
{
 800137c:	b430      	push	{r4, r5}
  TIMx->CCER &= ~TIM_CCER_CC2E;
 800137e:	6a03      	ldr	r3, [r0, #32]
 8001380:	f023 0310 	bic.w	r3, r3, #16
 8001384:	6203      	str	r3, [r0, #32]
  tmpccer = TIMx->CCER;
 8001386:	6a03      	ldr	r3, [r0, #32]
  tmpcr2 =  TIMx->CR2;
 8001388:	6844      	ldr	r4, [r0, #4]
  tmpccmrx = TIMx->CCMR1;
 800138a:	6982      	ldr	r2, [r0, #24]
  tmpccmrx &= ~TIM_CCMR1_CC2S;
 800138c:	f422 42e6 	bic.w	r2, r2, #29440	; 0x7300
  tmpccmrx |= (OC_Config->OCMode << 8U);
 8001390:	680d      	ldr	r5, [r1, #0]
 8001392:	ea42 2205 	orr.w	r2, r2, r5, lsl #8
  tmpccer &= ~TIM_CCER_CC2P;
 8001396:	f023 0320 	bic.w	r3, r3, #32
  tmpccer |= (OC_Config->OCPolarity << 4U);
 800139a:	688d      	ldr	r5, [r1, #8]
 800139c:	ea43 1305 	orr.w	r3, r3, r5, lsl #4
  if(IS_TIM_CCXN_INSTANCE(TIMx, TIM_CHANNEL_2))
 80013a0:	4d12      	ldr	r5, [pc, #72]	; (80013ec <TIM_OC2_SetConfig+0x70>)
 80013a2:	42a8      	cmp	r0, r5
 80013a4:	d011      	beq.n	80013ca <TIM_OC2_SetConfig+0x4e>
 80013a6:	f505 6500 	add.w	r5, r5, #2048	; 0x800
 80013aa:	42a8      	cmp	r0, r5
 80013ac:	d00d      	beq.n	80013ca <TIM_OC2_SetConfig+0x4e>
  if(IS_TIM_BREAK_INSTANCE(TIMx))
 80013ae:	4d0f      	ldr	r5, [pc, #60]	; (80013ec <TIM_OC2_SetConfig+0x70>)
 80013b0:	42a8      	cmp	r0, r5
 80013b2:	d012      	beq.n	80013da <TIM_OC2_SetConfig+0x5e>
 80013b4:	f505 6500 	add.w	r5, r5, #2048	; 0x800
 80013b8:	42a8      	cmp	r0, r5
 80013ba:	d00e      	beq.n	80013da <TIM_OC2_SetConfig+0x5e>
  TIMx->CR2 = tmpcr2;
 80013bc:	6044      	str	r4, [r0, #4]
  TIMx->CCMR1 = tmpccmrx;
 80013be:	6182      	str	r2, [r0, #24]
  TIMx->CCR2 = OC_Config->Pulse;
 80013c0:	684a      	ldr	r2, [r1, #4]
 80013c2:	6382      	str	r2, [r0, #56]	; 0x38
  TIMx->CCER = tmpccer;
 80013c4:	6203      	str	r3, [r0, #32]
}
 80013c6:	bc30      	pop	{r4, r5}
 80013c8:	4770      	bx	lr
    tmpccer &= ~TIM_CCER_CC2NP;
 80013ca:	f023 0380 	bic.w	r3, r3, #128	; 0x80
    tmpccer |= (OC_Config->OCNPolarity << 4U);
 80013ce:	68cd      	ldr	r5, [r1, #12]
 80013d0:	ea43 1305 	orr.w	r3, r3, r5, lsl #4
    tmpccer &= ~TIM_CCER_CC2NE;
 80013d4:	f023 0340 	bic.w	r3, r3, #64	; 0x40
 80013d8:	e7e9      	b.n	80013ae <TIM_OC2_SetConfig+0x32>
    tmpcr2 &= ~TIM_CR2_OIS2N;
 80013da:	f424 6440 	bic.w	r4, r4, #3072	; 0xc00
    tmpcr2 |= (OC_Config->OCIdleState << 2);
 80013de:	694d      	ldr	r5, [r1, #20]
 80013e0:	ea44 0485 	orr.w	r4, r4, r5, lsl #2
    tmpcr2 |= (OC_Config->OCNIdleState << 2);
 80013e4:	698d      	ldr	r5, [r1, #24]
 80013e6:	ea44 0485 	orr.w	r4, r4, r5, lsl #2
 80013ea:	e7e7      	b.n	80013bc <TIM_OC2_SetConfig+0x40>
 80013ec:	40012c00 	.word	0x40012c00

080013f0 <HAL_TIM_PWM_ConfigChannel>:
{
 80013f0:	b538      	push	{r3, r4, r5, lr}
  __HAL_LOCK(htim);
 80013f2:	f890 303c 	ldrb.w	r3, [r0, #60]	; 0x3c
 80013f6:	2b01      	cmp	r3, #1
 80013f8:	d066      	beq.n	80014c8 <HAL_TIM_PWM_ConfigChannel+0xd8>
 80013fa:	460d      	mov	r5, r1
 80013fc:	4604      	mov	r4, r0
 80013fe:	2301      	movs	r3, #1
 8001400:	f880 303c 	strb.w	r3, [r0, #60]	; 0x3c
  htim->State = HAL_TIM_STATE_BUSY;
 8001404:	2302      	movs	r3, #2
 8001406:	f880 303d 	strb.w	r3, [r0, #61]	; 0x3d
  switch (Channel)
 800140a:	2a0c      	cmp	r2, #12
 800140c:	d81a      	bhi.n	8001444 <HAL_TIM_PWM_ConfigChannel+0x54>
 800140e:	e8df f002 	tbb	[pc, r2]
 8001412:	1907      	.short	0x1907
 8001414:	19201919 	.word	0x19201919
 8001418:	19341919 	.word	0x19341919
 800141c:	1919      	.short	0x1919
 800141e:	47          	.byte	0x47
 800141f:	00          	.byte	0x00
      TIM_OC1_SetConfig(htim->Instance, sConfig);
 8001420:	6800      	ldr	r0, [r0, #0]
 8001422:	f7ff fdd7 	bl	8000fd4 <TIM_OC1_SetConfig>
      htim->Instance->CCMR1 |= TIM_CCMR1_OC1PE;
 8001426:	6822      	ldr	r2, [r4, #0]
 8001428:	6993      	ldr	r3, [r2, #24]
 800142a:	f043 0308 	orr.w	r3, r3, #8
 800142e:	6193      	str	r3, [r2, #24]
      htim->Instance->CCMR1 &= ~TIM_CCMR1_OC1FE;
 8001430:	6822      	ldr	r2, [r4, #0]
 8001432:	6993      	ldr	r3, [r2, #24]
 8001434:	f023 0304 	bic.w	r3, r3, #4
 8001438:	6193      	str	r3, [r2, #24]
      htim->Instance->CCMR1 |= sConfig->OCFastMode;
 800143a:	6822      	ldr	r2, [r4, #0]
 800143c:	6993      	ldr	r3, [r2, #24]
 800143e:	6929      	ldr	r1, [r5, #16]
 8001440:	430b      	orrs	r3, r1
 8001442:	6193      	str	r3, [r2, #24]
  htim->State = HAL_TIM_STATE_READY;
 8001444:	2301      	movs	r3, #1
 8001446:	f884 303d 	strb.w	r3, [r4, #61]	; 0x3d
  __HAL_UNLOCK(htim);
 800144a:	2000      	movs	r0, #0
 800144c:	f884 003c 	strb.w	r0, [r4, #60]	; 0x3c
  return HAL_OK;
 8001450:	bd38      	pop	{r3, r4, r5, pc}
      TIM_OC2_SetConfig(htim->Instance, sConfig);
 8001452:	6800      	ldr	r0, [r0, #0]
 8001454:	f7ff ff92 	bl	800137c <TIM_OC2_SetConfig>
      htim->Instance->CCMR1 |= TIM_CCMR1_OC2PE;
 8001458:	6822      	ldr	r2, [r4, #0]
 800145a:	6993      	ldr	r3, [r2, #24]
 800145c:	f443 6300 	orr.w	r3, r3, #2048	; 0x800
 8001460:	6193      	str	r3, [r2, #24]
      htim->Instance->CCMR1 &= ~TIM_CCMR1_OC2FE;
 8001462:	6822      	ldr	r2, [r4, #0]
 8001464:	6993      	ldr	r3, [r2, #24]
 8001466:	f423 6380 	bic.w	r3, r3, #1024	; 0x400
 800146a:	6193      	str	r3, [r2, #24]
      htim->Instance->CCMR1 |= sConfig->OCFastMode << 8;
 800146c:	6822      	ldr	r2, [r4, #0]
 800146e:	6993      	ldr	r3, [r2, #24]
 8001470:	6929      	ldr	r1, [r5, #16]
 8001472:	ea43 2301 	orr.w	r3, r3, r1, lsl #8
 8001476:	6193      	str	r3, [r2, #24]
    break;
 8001478:	e7e4      	b.n	8001444 <HAL_TIM_PWM_ConfigChannel+0x54>
      TIM_OC3_SetConfig(htim->Instance, sConfig);
 800147a:	6800      	ldr	r0, [r0, #0]
 800147c:	f7ff fde0 	bl	8001040 <TIM_OC3_SetConfig>
      htim->Instance->CCMR2 |= TIM_CCMR2_OC3PE;
 8001480:	6822      	ldr	r2, [r4, #0]
 8001482:	69d3      	ldr	r3, [r2, #28]
 8001484:	f043 0308 	orr.w	r3, r3, #8
 8001488:	61d3      	str	r3, [r2, #28]
      htim->Instance->CCMR2 &= ~TIM_CCMR2_OC3FE;
 800148a:	6822      	ldr	r2, [r4, #0]
 800148c:	69d3      	ldr	r3, [r2, #28]
 800148e:	f023 0304 	bic.w	r3, r3, #4
 8001492:	61d3      	str	r3, [r2, #28]
      htim->Instance->CCMR2 |= sConfig->OCFastMode;
 8001494:	6822      	ldr	r2, [r4, #0]
 8001496:	69d3      	ldr	r3, [r2, #28]
 8001498:	6929      	ldr	r1, [r5, #16]
 800149a:	430b      	orrs	r3, r1
 800149c:	61d3      	str	r3, [r2, #28]
    break;
 800149e:	e7d1      	b.n	8001444 <HAL_TIM_PWM_ConfigChannel+0x54>
      TIM_OC4_SetConfig(htim->Instance, sConfig);
 80014a0:	6800      	ldr	r0, [r0, #0]
 80014a2:	f7ff fe07 	bl	80010b4 <TIM_OC4_SetConfig>
      htim->Instance->CCMR2 |= TIM_CCMR2_OC4PE;
 80014a6:	6822      	ldr	r2, [r4, #0]
 80014a8:	69d3      	ldr	r3, [r2, #28]
 80014aa:	f443 6300 	orr.w	r3, r3, #2048	; 0x800
 80014ae:	61d3      	str	r3, [r2, #28]
      htim->Instance->CCMR2 &= ~TIM_CCMR2_OC4FE;
 80014b0:	6822      	ldr	r2, [r4, #0]
 80014b2:	69d3      	ldr	r3, [r2, #28]
 80014b4:	f423 6380 	bic.w	r3, r3, #1024	; 0x400
 80014b8:	61d3      	str	r3, [r2, #28]
      htim->Instance->CCMR2 |= sConfig->OCFastMode << 8;
 80014ba:	6822      	ldr	r2, [r4, #0]
 80014bc:	69d3      	ldr	r3, [r2, #28]
 80014be:	6929      	ldr	r1, [r5, #16]
 80014c0:	ea43 2301 	orr.w	r3, r3, r1, lsl #8
 80014c4:	61d3      	str	r3, [r2, #28]
    break;
 80014c6:	e7bd      	b.n	8001444 <HAL_TIM_PWM_ConfigChannel+0x54>
  __HAL_LOCK(htim);
 80014c8:	2002      	movs	r0, #2
}
 80014ca:	bd38      	pop	{r3, r4, r5, pc}

080014cc <TIM_CCxChannelCmd>:
  * @param  ChannelState : specifies the TIM Channel CCxE bit new state.
  *          This parameter can be: TIM_CCx_ENABLE or TIM_CCx_Disable.
  * @retval None
  */
void TIM_CCxChannelCmd(TIM_TypeDef* TIMx, uint32_t Channel, uint32_t ChannelState)
{
 80014cc:	b410      	push	{r4}

  /* Check the parameters */
  assert_param(IS_TIM_CC1_INSTANCE(TIMx));
  assert_param(IS_TIM_CHANNELS(Channel));

  tmp = TIM_CCER_CC1E << Channel;
 80014ce:	2301      	movs	r3, #1
 80014d0:	fa03 f401 	lsl.w	r4, r3, r1

  /* Reset the CCxE Bit */
  TIMx->CCER &= ~tmp;
 80014d4:	6a03      	ldr	r3, [r0, #32]
 80014d6:	ea23 0304 	bic.w	r3, r3, r4
 80014da:	6203      	str	r3, [r0, #32]

  /* Set or reset the CCxE Bit */
  TIMx->CCER |=  (uint32_t)(ChannelState << Channel);
 80014dc:	6a03      	ldr	r3, [r0, #32]
 80014de:	408a      	lsls	r2, r1
 80014e0:	4313      	orrs	r3, r2
 80014e2:	6203      	str	r3, [r0, #32]
}
 80014e4:	bc10      	pop	{r4}
 80014e6:	4770      	bx	lr

080014e8 <HAL_TIM_PWM_Start>:
{
 80014e8:	b510      	push	{r4, lr}
 80014ea:	4604      	mov	r4, r0
  TIM_CCxChannelCmd(htim->Instance, Channel, TIM_CCx_ENABLE);
 80014ec:	2201      	movs	r2, #1
 80014ee:	6800      	ldr	r0, [r0, #0]
 80014f0:	f7ff ffec 	bl	80014cc <TIM_CCxChannelCmd>
  if(IS_TIM_BREAK_INSTANCE(htim->Instance) != RESET)
 80014f4:	6823      	ldr	r3, [r4, #0]
 80014f6:	4a0c      	ldr	r2, [pc, #48]	; (8001528 <HAL_TIM_PWM_Start+0x40>)
 80014f8:	4293      	cmp	r3, r2
 80014fa:	d012      	beq.n	8001522 <HAL_TIM_PWM_Start+0x3a>
 80014fc:	f502 6200 	add.w	r2, r2, #2048	; 0x800
 8001500:	4293      	cmp	r3, r2
 8001502:	d00c      	beq.n	800151e <HAL_TIM_PWM_Start+0x36>
 8001504:	2200      	movs	r2, #0
 8001506:	b11a      	cbz	r2, 8001510 <HAL_TIM_PWM_Start+0x28>
    __HAL_TIM_MOE_ENABLE(htim);
 8001508:	6c5a      	ldr	r2, [r3, #68]	; 0x44
 800150a:	f442 4200 	orr.w	r2, r2, #32768	; 0x8000
 800150e:	645a      	str	r2, [r3, #68]	; 0x44
  __HAL_TIM_ENABLE(htim);
 8001510:	6822      	ldr	r2, [r4, #0]
 8001512:	6813      	ldr	r3, [r2, #0]
 8001514:	f043 0301 	orr.w	r3, r3, #1
 8001518:	6013      	str	r3, [r2, #0]
}
 800151a:	2000      	movs	r0, #0
 800151c:	bd10      	pop	{r4, pc}
  if(IS_TIM_BREAK_INSTANCE(htim->Instance) != RESET)
 800151e:	2201      	movs	r2, #1
 8001520:	e7f1      	b.n	8001506 <HAL_TIM_PWM_Start+0x1e>
 8001522:	2201      	movs	r2, #1
 8001524:	e7ef      	b.n	8001506 <HAL_TIM_PWM_Start+0x1e>
 8001526:	bf00      	nop
 8001528:	40012c00 	.word	0x40012c00

0800152c <HAL_TIM_PWM_Stop>:
{
 800152c:	b510      	push	{r4, lr}
 800152e:	4604      	mov	r4, r0
  TIM_CCxChannelCmd(htim->Instance, Channel, TIM_CCx_DISABLE);
 8001530:	2200      	movs	r2, #0
 8001532:	6800      	ldr	r0, [r0, #0]
 8001534:	f7ff ffca 	bl	80014cc <TIM_CCxChannelCmd>
  if(IS_TIM_BREAK_INSTANCE(htim->Instance) != RESET)
 8001538:	6823      	ldr	r3, [r4, #0]
 800153a:	4a17      	ldr	r2, [pc, #92]	; (8001598 <HAL_TIM_PWM_Stop+0x6c>)
 800153c:	4293      	cmp	r3, r2
 800153e:	d029      	beq.n	8001594 <HAL_TIM_PWM_Stop+0x68>
 8001540:	f502 6200 	add.w	r2, r2, #2048	; 0x800
 8001544:	4293      	cmp	r3, r2
 8001546:	d023      	beq.n	8001590 <HAL_TIM_PWM_Stop+0x64>
 8001548:	2200      	movs	r2, #0
 800154a:	b16a      	cbz	r2, 8001568 <HAL_TIM_PWM_Stop+0x3c>
    __HAL_TIM_MOE_DISABLE(htim);
 800154c:	6a19      	ldr	r1, [r3, #32]
 800154e:	f241 1211 	movw	r2, #4369	; 0x1111
 8001552:	4211      	tst	r1, r2
 8001554:	d108      	bne.n	8001568 <HAL_TIM_PWM_Stop+0x3c>
 8001556:	6a19      	ldr	r1, [r3, #32]
 8001558:	f240 4244 	movw	r2, #1092	; 0x444
 800155c:	4211      	tst	r1, r2
 800155e:	d103      	bne.n	8001568 <HAL_TIM_PWM_Stop+0x3c>
 8001560:	6c5a      	ldr	r2, [r3, #68]	; 0x44
 8001562:	f422 4200 	bic.w	r2, r2, #32768	; 0x8000
 8001566:	645a      	str	r2, [r3, #68]	; 0x44
  __HAL_TIM_DISABLE(htim);
 8001568:	6823      	ldr	r3, [r4, #0]
 800156a:	6a19      	ldr	r1, [r3, #32]
 800156c:	f241 1211 	movw	r2, #4369	; 0x1111
 8001570:	4211      	tst	r1, r2
 8001572:	d108      	bne.n	8001586 <HAL_TIM_PWM_Stop+0x5a>
 8001574:	6a19      	ldr	r1, [r3, #32]
 8001576:	f240 4244 	movw	r2, #1092	; 0x444
 800157a:	4211      	tst	r1, r2
 800157c:	d103      	bne.n	8001586 <HAL_TIM_PWM_Stop+0x5a>
 800157e:	681a      	ldr	r2, [r3, #0]
 8001580:	f022 0201 	bic.w	r2, r2, #1
 8001584:	601a      	str	r2, [r3, #0]
  htim->State = HAL_TIM_STATE_READY;
 8001586:	2301      	movs	r3, #1
 8001588:	f884 303d 	strb.w	r3, [r4, #61]	; 0x3d
}
 800158c:	2000      	movs	r0, #0
 800158e:	bd10      	pop	{r4, pc}
  if(IS_TIM_BREAK_INSTANCE(htim->Instance) != RESET)
 8001590:	2201      	movs	r2, #1
 8001592:	e7da      	b.n	800154a <HAL_TIM_PWM_Stop+0x1e>
 8001594:	2201      	movs	r2, #1
 8001596:	e7d8      	b.n	800154a <HAL_TIM_PWM_Stop+0x1e>
 8001598:	40012c00 	.word	0x40012c00

0800159c <HAL_TIMEx_ConfigBreakDeadTime>:
  assert_param(IS_TIM_BREAK_STATE(sBreakDeadTimeConfig->BreakState));
  assert_param(IS_TIM_BREAK_POLARITY(sBreakDeadTimeConfig->BreakPolarity));
  assert_param(IS_TIM_AUTOMATIC_OUTPUT_STATE(sBreakDeadTimeConfig->AutomaticOutput));

  /* Process Locked */
  __HAL_LOCK(htim);
 800159c:	f890 303c 	ldrb.w	r3, [r0, #60]	; 0x3c
 80015a0:	2b01      	cmp	r3, #1
 80015a2:	d025      	beq.n	80015f0 <HAL_TIMEx_ConfigBreakDeadTime+0x54>
 80015a4:	2301      	movs	r3, #1
 80015a6:	f880 303c 	strb.w	r3, [r0, #60]	; 0x3c

  /* Set the Lock level, the Break enable Bit and the Polarity, the OSSR State,
     the OSSI State, the dead time value and the Automatic Output Enable Bit */

  /* Set the BDTR bits */
  MODIFY_REG(tmpbdtr, TIM_BDTR_DTG, sBreakDeadTimeConfig->DeadTime);
 80015aa:	68cb      	ldr	r3, [r1, #12]
  MODIFY_REG(tmpbdtr, TIM_BDTR_LOCK, sBreakDeadTimeConfig->LockLevel);
 80015ac:	f423 7340 	bic.w	r3, r3, #768	; 0x300
 80015b0:	688a      	ldr	r2, [r1, #8]
 80015b2:	4313      	orrs	r3, r2
  MODIFY_REG(tmpbdtr, TIM_BDTR_OSSI, sBreakDeadTimeConfig->OffStateIDLEMode);
 80015b4:	f423 6380 	bic.w	r3, r3, #1024	; 0x400
 80015b8:	684a      	ldr	r2, [r1, #4]
 80015ba:	4313      	orrs	r3, r2
  MODIFY_REG(tmpbdtr, TIM_BDTR_OSSR, sBreakDeadTimeConfig->OffStateRunMode);
 80015bc:	f423 6300 	bic.w	r3, r3, #2048	; 0x800
 80015c0:	680a      	ldr	r2, [r1, #0]
 80015c2:	4313      	orrs	r3, r2
  MODIFY_REG(tmpbdtr, TIM_BDTR_BKE, sBreakDeadTimeConfig->BreakState);
 80015c4:	f423 5380 	bic.w	r3, r3, #4096	; 0x1000
 80015c8:	690a      	ldr	r2, [r1, #16]
 80015ca:	4313      	orrs	r3, r2
  MODIFY_REG(tmpbdtr, TIM_BDTR_BKP, sBreakDeadTimeConfig->BreakPolarity);
 80015cc:	f423 5300 	bic.w	r3, r3, #8192	; 0x2000
 80015d0:	694a      	ldr	r2, [r1, #20]
 80015d2:	4313      	orrs	r3, r2
  MODIFY_REG(tmpbdtr, TIM_BDTR_AOE, sBreakDeadTimeConfig->AutomaticOutput);
 80015d4:	f423 4380 	bic.w	r3, r3, #16384	; 0x4000
 80015d8:	698a      	ldr	r2, [r1, #24]
 80015da:	4313      	orrs	r3, r2
  MODIFY_REG(tmpbdtr, TIM_BDTR_MOE, sBreakDeadTimeConfig->AutomaticOutput);
 80015dc:	f423 4300 	bic.w	r3, r3, #32768	; 0x8000
 80015e0:	4313      	orrs	r3, r2

  /* Set TIMx_BDTR */
  htim->Instance->BDTR = tmpbdtr;
 80015e2:	6802      	ldr	r2, [r0, #0]
 80015e4:	6453      	str	r3, [r2, #68]	; 0x44

  __HAL_UNLOCK(htim);
 80015e6:	2300      	movs	r3, #0
 80015e8:	f880 303c 	strb.w	r3, [r0, #60]	; 0x3c

  return HAL_OK;
 80015ec:	4618      	mov	r0, r3
 80015ee:	4770      	bx	lr
  __HAL_LOCK(htim);
 80015f0:	2002      	movs	r0, #2
}
 80015f2:	4770      	bx	lr

080015f4 <HAL_TIMEx_MasterConfigSynchronization>:
  /* Check the parameters */
  assert_param(IS_TIM_MASTER_INSTANCE(htim->Instance));
  assert_param(IS_TIM_TRGO_SOURCE(sMasterConfig->MasterOutputTrigger));
  assert_param(IS_TIM_MSM_STATE(sMasterConfig->MasterSlaveMode));

  __HAL_LOCK(htim);
 80015f4:	f890 303c 	ldrb.w	r3, [r0, #60]	; 0x3c
 80015f8:	2b01      	cmp	r3, #1
 80015fa:	d022      	beq.n	8001642 <HAL_TIMEx_MasterConfigSynchronization+0x4e>
{
 80015fc:	b430      	push	{r4, r5}
  __HAL_LOCK(htim);
 80015fe:	2201      	movs	r2, #1
 8001600:	f880 203c 	strb.w	r2, [r0, #60]	; 0x3c

  htim->State = HAL_TIM_STATE_BUSY;
 8001604:	2302      	movs	r3, #2
 8001606:	f880 303d 	strb.w	r3, [r0, #61]	; 0x3d

  /* Reset the MMS Bits */
  htim->Instance->CR2 &= ~TIM_CR2_MMS;
 800160a:	6804      	ldr	r4, [r0, #0]
 800160c:	6863      	ldr	r3, [r4, #4]
 800160e:	f023 0370 	bic.w	r3, r3, #112	; 0x70
 8001612:	6063      	str	r3, [r4, #4]
  /* Select the TRGO source */
  htim->Instance->CR2 |=  sMasterConfig->MasterOutputTrigger;
 8001614:	6804      	ldr	r4, [r0, #0]
 8001616:	6863      	ldr	r3, [r4, #4]
 8001618:	680d      	ldr	r5, [r1, #0]
 800161a:	432b      	orrs	r3, r5
 800161c:	6063      	str	r3, [r4, #4]

  /* Reset the MSM Bit */
  htim->Instance->SMCR &= ~TIM_SMCR_MSM;
 800161e:	6804      	ldr	r4, [r0, #0]
 8001620:	68a3      	ldr	r3, [r4, #8]
 8001622:	f023 0380 	bic.w	r3, r3, #128	; 0x80
 8001626:	60a3      	str	r3, [r4, #8]
  /* Set or Reset the MSM Bit */
  htim->Instance->SMCR |= sMasterConfig->MasterSlaveMode;
 8001628:	6804      	ldr	r4, [r0, #0]
 800162a:	68a3      	ldr	r3, [r4, #8]
 800162c:	6849      	ldr	r1, [r1, #4]
 800162e:	430b      	orrs	r3, r1
 8001630:	60a3      	str	r3, [r4, #8]

  htim->State = HAL_TIM_STATE_READY;
 8001632:	f880 203d 	strb.w	r2, [r0, #61]	; 0x3d

  __HAL_UNLOCK(htim);
 8001636:	2300      	movs	r3, #0
 8001638:	f880 303c 	strb.w	r3, [r0, #60]	; 0x3c

  return HAL_OK;
 800163c:	4618      	mov	r0, r3
}
 800163e:	bc30      	pop	{r4, r5}
 8001640:	4770      	bx	lr
  __HAL_LOCK(htim);
 8001642:	2002      	movs	r0, #2
 8001644:	4770      	bx	lr
	...

08001648 <UART_SetConfig>:
  * @param  huart: pointer to a UART_HandleTypeDef structure that contains
  *                the configuration information for the specified UART module.
  * @retval None
  */
static void UART_SetConfig(UART_HandleTypeDef *huart)
{
 8001648:	e92d 47f0 	stmdb	sp!, {r4, r5, r6, r7, r8, r9, sl, lr}
 800164c:	4605      	mov	r5, r0
  assert_param(IS_UART_MODE(huart->Init.Mode));

  /*------- UART-associated USART registers setting : CR2 Configuration ------*/
  /* Configure the UART Stop Bits: Set STOP[13:12] bits according 
   * to huart->Init.StopBits value */
  MODIFY_REG(huart->Instance->CR2, USART_CR2_STOP, huart->Init.StopBits);
 800164e:	6802      	ldr	r2, [r0, #0]
 8001650:	6913      	ldr	r3, [r2, #16]
 8001652:	f423 5340 	bic.w	r3, r3, #12288	; 0x3000
 8001656:	68c1      	ldr	r1, [r0, #12]
 8001658:	430b      	orrs	r3, r1
 800165a:	6113      	str	r3, [r2, #16]
  tmpreg |= (uint32_t)huart->Init.WordLength | huart->Init.Parity | huart->Init.Mode | huart->Init.OverSampling;
  MODIFY_REG(huart->Instance->CR1, 
             (uint32_t)(USART_CR1_M | USART_CR1_PCE | USART_CR1_PS | USART_CR1_TE | USART_CR1_RE | USART_CR1_OVER8), 
             tmpreg);
#else
  tmpreg |= (uint32_t)huart->Init.WordLength | huart->Init.Parity | huart->Init.Mode;
 800165c:	6883      	ldr	r3, [r0, #8]
 800165e:	6902      	ldr	r2, [r0, #16]
 8001660:	4313      	orrs	r3, r2
 8001662:	6942      	ldr	r2, [r0, #20]
 8001664:	4313      	orrs	r3, r2
  MODIFY_REG(huart->Instance->CR1, 
 8001666:	6801      	ldr	r1, [r0, #0]
 8001668:	68ca      	ldr	r2, [r1, #12]
 800166a:	f422 52b0 	bic.w	r2, r2, #5632	; 0x1600
 800166e:	f022 020c 	bic.w	r2, r2, #12
 8001672:	4313      	orrs	r3, r2
 8001674:	60cb      	str	r3, [r1, #12]
             tmpreg);
#endif /* USART_CR1_OVER8 */

  /*------- UART-associated USART registers setting : CR3 Configuration ------*/
  /* Configure the UART HFC: Set CTSE and RTSE bits according to huart->Init.HwFlowCtl value */
  MODIFY_REG(huart->Instance->CR3, (USART_CR3_RTSE | USART_CR3_CTSE), huart->Init.HwFlowCtl);
 8001676:	6802      	ldr	r2, [r0, #0]
 8001678:	6953      	ldr	r3, [r2, #20]
 800167a:	f423 7340 	bic.w	r3, r3, #768	; 0x300
 800167e:	6981      	ldr	r1, [r0, #24]
 8001680:	430b      	orrs	r3, r1
 8001682:	6153      	str	r3, [r2, #20]
      huart->Instance->BRR = UART_BRR_SAMPLING16(HAL_RCC_GetPCLK1Freq(), huart->Init.BaudRate);
    }
  }
#else
  /*-------------------------- USART BRR Configuration ---------------------*/
  if(huart->Instance == USART1)
 8001684:	f8d0 8000 	ldr.w	r8, [r0]
 8001688:	4b59      	ldr	r3, [pc, #356]	; (80017f0 <UART_SetConfig+0x1a8>)
 800168a:	4598      	cmp	r8, r3
 800168c:	d057      	beq.n	800173e <UART_SetConfig+0xf6>
  {
    huart->Instance->BRR = UART_BRR_SAMPLING16(HAL_RCC_GetPCLK2Freq(), huart->Init.BaudRate);
  }
  else
  {
    huart->Instance->BRR = UART_BRR_SAMPLING16(HAL_RCC_GetPCLK1Freq(), huart->Init.BaudRate);
 800168e:	f7ff fbf7 	bl	8000e80 <HAL_RCC_GetPCLK1Freq>
 8001692:	eb00 0080 	add.w	r0, r0, r0, lsl #2
 8001696:	eb00 0080 	add.w	r0, r0, r0, lsl #2
 800169a:	686c      	ldr	r4, [r5, #4]
 800169c:	00a4      	lsls	r4, r4, #2
 800169e:	fbb0 f4f4 	udiv	r4, r0, r4
 80016a2:	4f54      	ldr	r7, [pc, #336]	; (80017f4 <UART_SetConfig+0x1ac>)
 80016a4:	fba7 3404 	umull	r3, r4, r7, r4
 80016a8:	0964      	lsrs	r4, r4, #5
 80016aa:	0126      	lsls	r6, r4, #4
 80016ac:	f7ff fbe8 	bl	8000e80 <HAL_RCC_GetPCLK1Freq>
 80016b0:	eb00 0080 	add.w	r0, r0, r0, lsl #2
 80016b4:	eb00 0080 	add.w	r0, r0, r0, lsl #2
 80016b8:	686c      	ldr	r4, [r5, #4]
 80016ba:	00a4      	lsls	r4, r4, #2
 80016bc:	fbb0 faf4 	udiv	sl, r0, r4
 80016c0:	f7ff fbde 	bl	8000e80 <HAL_RCC_GetPCLK1Freq>
 80016c4:	eb00 0080 	add.w	r0, r0, r0, lsl #2
 80016c8:	eb00 0080 	add.w	r0, r0, r0, lsl #2
 80016cc:	686c      	ldr	r4, [r5, #4]
 80016ce:	00a4      	lsls	r4, r4, #2
 80016d0:	fbb0 f4f4 	udiv	r4, r0, r4
 80016d4:	fba7 3404 	umull	r3, r4, r7, r4
 80016d8:	0964      	lsrs	r4, r4, #5
 80016da:	f04f 0964 	mov.w	r9, #100	; 0x64
 80016de:	fb09 a414 	mls	r4, r9, r4, sl
 80016e2:	0124      	lsls	r4, r4, #4
 80016e4:	3432      	adds	r4, #50	; 0x32
 80016e6:	fba7 3404 	umull	r3, r4, r7, r4
 80016ea:	0964      	lsrs	r4, r4, #5
 80016ec:	f004 04f0 	and.w	r4, r4, #240	; 0xf0
 80016f0:	4434      	add	r4, r6
 80016f2:	f7ff fbc5 	bl	8000e80 <HAL_RCC_GetPCLK1Freq>
 80016f6:	eb00 0080 	add.w	r0, r0, r0, lsl #2
 80016fa:	eb00 0080 	add.w	r0, r0, r0, lsl #2
 80016fe:	686e      	ldr	r6, [r5, #4]
 8001700:	00b6      	lsls	r6, r6, #2
 8001702:	fbb0 f6f6 	udiv	r6, r0, r6
 8001706:	f7ff fbbb 	bl	8000e80 <HAL_RCC_GetPCLK1Freq>
 800170a:	eb00 0080 	add.w	r0, r0, r0, lsl #2
 800170e:	eb00 0080 	add.w	r0, r0, r0, lsl #2
 8001712:	686b      	ldr	r3, [r5, #4]
 8001714:	009b      	lsls	r3, r3, #2
 8001716:	fbb0 f0f3 	udiv	r0, r0, r3
 800171a:	fba7 3000 	umull	r3, r0, r7, r0
 800171e:	0940      	lsrs	r0, r0, #5
 8001720:	fb09 6910 	mls	r9, r9, r0, r6
 8001724:	ea4f 1909 	mov.w	r9, r9, lsl #4
 8001728:	f109 0932 	add.w	r9, r9, #50	; 0x32
 800172c:	fba7 3709 	umull	r3, r7, r7, r9
 8001730:	f3c7 1743 	ubfx	r7, r7, #5, #4
 8001734:	4427      	add	r7, r4
 8001736:	f8c8 7008 	str.w	r7, [r8, #8]
 800173a:	e8bd 87f0 	ldmia.w	sp!, {r4, r5, r6, r7, r8, r9, sl, pc}
    huart->Instance->BRR = UART_BRR_SAMPLING16(HAL_RCC_GetPCLK2Freq(), huart->Init.BaudRate);
 800173e:	f7ff fbaf 	bl	8000ea0 <HAL_RCC_GetPCLK2Freq>
 8001742:	eb00 0080 	add.w	r0, r0, r0, lsl #2
 8001746:	eb00 0080 	add.w	r0, r0, r0, lsl #2
 800174a:	686c      	ldr	r4, [r5, #4]
 800174c:	00a4      	lsls	r4, r4, #2
 800174e:	fbb0 f4f4 	udiv	r4, r0, r4
 8001752:	4f28      	ldr	r7, [pc, #160]	; (80017f4 <UART_SetConfig+0x1ac>)
 8001754:	fba7 3404 	umull	r3, r4, r7, r4
 8001758:	0964      	lsrs	r4, r4, #5
 800175a:	0126      	lsls	r6, r4, #4
 800175c:	f7ff fba0 	bl	8000ea0 <HAL_RCC_GetPCLK2Freq>
 8001760:	eb00 0080 	add.w	r0, r0, r0, lsl #2
 8001764:	eb00 0080 	add.w	r0, r0, r0, lsl #2
 8001768:	686c      	ldr	r4, [r5, #4]
 800176a:	00a4      	lsls	r4, r4, #2
 800176c:	fbb0 faf4 	udiv	sl, r0, r4
 8001770:	f7ff fb96 	bl	8000ea0 <HAL_RCC_GetPCLK2Freq>
 8001774:	eb00 0080 	add.w	r0, r0, r0, lsl #2
 8001778:	eb00 0080 	add.w	r0, r0, r0, lsl #2
 800177c:	686c      	ldr	r4, [r5, #4]
 800177e:	00a4      	lsls	r4, r4, #2
 8001780:	fbb0 f4f4 	udiv	r4, r0, r4
 8001784:	fba7 3404 	umull	r3, r4, r7, r4
 8001788:	0964      	lsrs	r4, r4, #5
 800178a:	f04f 0964 	mov.w	r9, #100	; 0x64
 800178e:	fb09 a414 	mls	r4, r9, r4, sl
 8001792:	0124      	lsls	r4, r4, #4
 8001794:	3432      	adds	r4, #50	; 0x32
 8001796:	fba7 3404 	umull	r3, r4, r7, r4
 800179a:	0964      	lsrs	r4, r4, #5
 800179c:	f004 04f0 	and.w	r4, r4, #240	; 0xf0
 80017a0:	4434      	add	r4, r6
 80017a2:	f7ff fb7d 	bl	8000ea0 <HAL_RCC_GetPCLK2Freq>
 80017a6:	eb00 0080 	add.w	r0, r0, r0, lsl #2
 80017aa:	eb00 0080 	add.w	r0, r0, r0, lsl #2
 80017ae:	686e      	ldr	r6, [r5, #4]
 80017b0:	00b6      	lsls	r6, r6, #2
 80017b2:	fbb0 f6f6 	udiv	r6, r0, r6
 80017b6:	f7ff fb73 	bl	8000ea0 <HAL_RCC_GetPCLK2Freq>
 80017ba:	eb00 0080 	add.w	r0, r0, r0, lsl #2
 80017be:	eb00 0080 	add.w	r0, r0, r0, lsl #2
 80017c2:	686b      	ldr	r3, [r5, #4]
 80017c4:	009b      	lsls	r3, r3, #2
 80017c6:	fbb0 f3f3 	udiv	r3, r0, r3
 80017ca:	fba7 2303 	umull	r2, r3, r7, r3
 80017ce:	095b      	lsrs	r3, r3, #5
 80017d0:	fb09 6913 	mls	r9, r9, r3, r6
 80017d4:	ea4f 1909 	mov.w	r9, r9, lsl #4
 80017d8:	f109 0932 	add.w	r9, r9, #50	; 0x32
 80017dc:	fba7 3709 	umull	r3, r7, r7, r9
 80017e0:	f3c7 1743 	ubfx	r7, r7, #5, #4
 80017e4:	4427      	add	r7, r4
 80017e6:	f8c8 7008 	str.w	r7, [r8, #8]
 80017ea:	e8bd 87f0 	ldmia.w	sp!, {r4, r5, r6, r7, r8, r9, sl, pc}
 80017ee:	bf00      	nop
 80017f0:	40013800 	.word	0x40013800
 80017f4:	51eb851f 	.word	0x51eb851f

080017f8 <HAL_UART_Init>:
  if(huart == NULL)
 80017f8:	b358      	cbz	r0, 8001852 <HAL_UART_Init+0x5a>
{
 80017fa:	b510      	push	{r4, lr}
 80017fc:	4604      	mov	r4, r0
  if(huart->gState == HAL_UART_STATE_RESET)
 80017fe:	f890 3039 	ldrb.w	r3, [r0, #57]	; 0x39
 8001802:	b30b      	cbz	r3, 8001848 <HAL_UART_Init+0x50>
  huart->gState = HAL_UART_STATE_BUSY;
 8001804:	2324      	movs	r3, #36	; 0x24
 8001806:	f884 3039 	strb.w	r3, [r4, #57]	; 0x39
  __HAL_UART_DISABLE(huart);
 800180a:	6822      	ldr	r2, [r4, #0]
 800180c:	68d3      	ldr	r3, [r2, #12]
 800180e:	f423 5300 	bic.w	r3, r3, #8192	; 0x2000
 8001812:	60d3      	str	r3, [r2, #12]
  UART_SetConfig(huart);
 8001814:	4620      	mov	r0, r4
 8001816:	f7ff ff17 	bl	8001648 <UART_SetConfig>
  CLEAR_BIT(huart->Instance->CR2, (USART_CR2_LINEN | USART_CR2_CLKEN));
 800181a:	6822      	ldr	r2, [r4, #0]
 800181c:	6913      	ldr	r3, [r2, #16]
 800181e:	f423 4390 	bic.w	r3, r3, #18432	; 0x4800
 8001822:	6113      	str	r3, [r2, #16]
  CLEAR_BIT(huart->Instance->CR3, (USART_CR3_SCEN | USART_CR3_HDSEL | USART_CR3_IREN));
 8001824:	6822      	ldr	r2, [r4, #0]
 8001826:	6953      	ldr	r3, [r2, #20]
 8001828:	f023 032a 	bic.w	r3, r3, #42	; 0x2a
 800182c:	6153      	str	r3, [r2, #20]
  __HAL_UART_ENABLE(huart);
 800182e:	6822      	ldr	r2, [r4, #0]
 8001830:	68d3      	ldr	r3, [r2, #12]
 8001832:	f443 5300 	orr.w	r3, r3, #8192	; 0x2000
 8001836:	60d3      	str	r3, [r2, #12]
  huart->ErrorCode = HAL_UART_ERROR_NONE;
 8001838:	2000      	movs	r0, #0
 800183a:	63e0      	str	r0, [r4, #60]	; 0x3c
  huart->gState= HAL_UART_STATE_READY;
 800183c:	2320      	movs	r3, #32
 800183e:	f884 3039 	strb.w	r3, [r4, #57]	; 0x39
  huart->RxState= HAL_UART_STATE_READY;
 8001842:	f884 303a 	strb.w	r3, [r4, #58]	; 0x3a
  return HAL_OK;
 8001846:	bd10      	pop	{r4, pc}
    huart->Lock = HAL_UNLOCKED;
 8001848:	f880 3038 	strb.w	r3, [r0, #56]	; 0x38
    HAL_UART_MspInit(huart);
 800184c:	f000 fe4c 	bl	80024e8 <HAL_UART_MspInit>
 8001850:	e7d8      	b.n	8001804 <HAL_UART_Init+0xc>
    return HAL_ERROR;
 8001852:	2001      	movs	r0, #1
 8001854:	4770      	bx	lr
	...

08001858 <MX_ADC1_Init>:

ADC_HandleTypeDef hadc1;

/* ADC1 init function */
void MX_ADC1_Init(void)
{
 8001858:	b500      	push	{lr}
 800185a:	b085      	sub	sp, #20
  ADC_ChannelConfTypeDef sConfig;

    /**Common config 
    */
  hadc1.Instance = ADC1;
 800185c:	4813      	ldr	r0, [pc, #76]	; (80018ac <MX_ADC1_Init+0x54>)
 800185e:	4b14      	ldr	r3, [pc, #80]	; (80018b0 <MX_ADC1_Init+0x58>)
 8001860:	6003      	str	r3, [r0, #0]
  hadc1.Init.ScanConvMode = ADC_SCAN_DISABLE;
 8001862:	2300      	movs	r3, #0
 8001864:	6083      	str	r3, [r0, #8]
  hadc1.Init.ContinuousConvMode = DISABLE;
 8001866:	60c3      	str	r3, [r0, #12]
  hadc1.Init.DiscontinuousConvMode = DISABLE;
 8001868:	6143      	str	r3, [r0, #20]
  hadc1.Init.ExternalTrigConv = ADC_SOFTWARE_START;
 800186a:	f44f 2260 	mov.w	r2, #917504	; 0xe0000
 800186e:	61c2      	str	r2, [r0, #28]
  hadc1.Init.DataAlign = ADC_DATAALIGN_RIGHT;
 8001870:	6043      	str	r3, [r0, #4]
  hadc1.Init.NbrOfConversion = 1;
 8001872:	2301      	movs	r3, #1
 8001874:	6103      	str	r3, [r0, #16]
  if (HAL_ADC_Init(&hadc1) != HAL_OK)
 8001876:	f7fe fdf3 	bl	8000460 <HAL_ADC_Init>
 800187a:	b968      	cbnz	r0, 8001898 <MX_ADC1_Init+0x40>
    _Error_Handler(__FILE__, __LINE__);
  }

    /**Configure Regular Channel 
    */
  sConfig.Channel = ADC_CHANNEL_10;
 800187c:	230a      	movs	r3, #10
 800187e:	9301      	str	r3, [sp, #4]
  sConfig.Rank = ADC_REGULAR_RANK_1;
 8001880:	2301      	movs	r3, #1
 8001882:	9302      	str	r3, [sp, #8]
  sConfig.SamplingTime = ADC_SAMPLETIME_1CYCLE_5;
 8001884:	2300      	movs	r3, #0
 8001886:	9303      	str	r3, [sp, #12]
  if (HAL_ADC_ConfigChannel(&hadc1, &sConfig) != HAL_OK)
 8001888:	a901      	add	r1, sp, #4
 800188a:	4808      	ldr	r0, [pc, #32]	; (80018ac <MX_ADC1_Init+0x54>)
 800188c:	f7fe fd26 	bl	80002dc <HAL_ADC_ConfigChannel>
 8001890:	b938      	cbnz	r0, 80018a2 <MX_ADC1_Init+0x4a>
  {
    _Error_Handler(__FILE__, __LINE__);
  }

}
 8001892:	b005      	add	sp, #20
 8001894:	f85d fb04 	ldr.w	pc, [sp], #4
    _Error_Handler(__FILE__, __LINE__);
 8001898:	214c      	movs	r1, #76	; 0x4c
 800189a:	4806      	ldr	r0, [pc, #24]	; (80018b4 <MX_ADC1_Init+0x5c>)
 800189c:	f000 f900 	bl	8001aa0 <_Error_Handler>
 80018a0:	e7ec      	b.n	800187c <MX_ADC1_Init+0x24>
    _Error_Handler(__FILE__, __LINE__);
 80018a2:	2156      	movs	r1, #86	; 0x56
 80018a4:	4803      	ldr	r0, [pc, #12]	; (80018b4 <MX_ADC1_Init+0x5c>)
 80018a6:	f000 f8fb 	bl	8001aa0 <_Error_Handler>
}
 80018aa:	e7f2      	b.n	8001892 <MX_ADC1_Init+0x3a>
 80018ac:	2000009c 	.word	0x2000009c
 80018b0:	40012400 	.word	0x40012400
 80018b4:	08002e04 	.word	0x08002e04

080018b8 <HAL_ADC_MspInit>:

void HAL_ADC_MspInit(ADC_HandleTypeDef* adcHandle)
{

  GPIO_InitTypeDef GPIO_InitStruct;
  if(adcHandle->Instance==ADC1)
 80018b8:	6802      	ldr	r2, [r0, #0]
 80018ba:	4b0e      	ldr	r3, [pc, #56]	; (80018f4 <HAL_ADC_MspInit+0x3c>)
 80018bc:	429a      	cmp	r2, r3
 80018be:	d000      	beq.n	80018c2 <HAL_ADC_MspInit+0xa>
 80018c0:	4770      	bx	lr
{
 80018c2:	b500      	push	{lr}
 80018c4:	b087      	sub	sp, #28
  {
  /* USER CODE BEGIN ADC1_MspInit 0 */

  /* USER CODE END ADC1_MspInit 0 */
    /* ADC1 clock enable */
    __HAL_RCC_ADC1_CLK_ENABLE();
 80018c6:	f503 436c 	add.w	r3, r3, #60416	; 0xec00
 80018ca:	699a      	ldr	r2, [r3, #24]
 80018cc:	f442 7200 	orr.w	r2, r2, #512	; 0x200
 80018d0:	619a      	str	r2, [r3, #24]
 80018d2:	699b      	ldr	r3, [r3, #24]
 80018d4:	f403 7300 	and.w	r3, r3, #512	; 0x200
 80018d8:	9301      	str	r3, [sp, #4]
 80018da:	9b01      	ldr	r3, [sp, #4]
    PC0     ------> ADC1_IN10
    PC1     ------> ADC1_IN11
    PC2     ------> ADC1_IN12
    PC3     ------> ADC1_IN13 
    */
    GPIO_InitStruct.Pin = ADC1_Pin|ADC2_Pin|ADC3_Pin|ADC4_Pin;
 80018dc:	230f      	movs	r3, #15
 80018de:	9302      	str	r3, [sp, #8]
    GPIO_InitStruct.Mode = GPIO_MODE_ANALOG;
 80018e0:	2303      	movs	r3, #3
 80018e2:	9303      	str	r3, [sp, #12]
    HAL_GPIO_Init(GPIOC, &GPIO_InitStruct);
 80018e4:	a902      	add	r1, sp, #8
 80018e6:	4804      	ldr	r0, [pc, #16]	; (80018f8 <HAL_ADC_MspInit+0x40>)
 80018e8:	f7fe fec0 	bl	800066c <HAL_GPIO_Init>

  /* USER CODE BEGIN ADC1_MspInit 1 */

  /* USER CODE END ADC1_MspInit 1 */
  }
}
 80018ec:	b007      	add	sp, #28
 80018ee:	f85d fb04 	ldr.w	pc, [sp], #4
 80018f2:	bf00      	nop
 80018f4:	40012400 	.word	0x40012400
 80018f8:	40011000 	.word	0x40011000

080018fc <MX_GPIO_Init>:
        * Output
        * EVENT_OUT
        * EXTI
*/
void MX_GPIO_Init(void)
{
 80018fc:	e92d 41f0 	stmdb	sp!, {r4, r5, r6, r7, r8, lr}
 8001900:	b088      	sub	sp, #32

  GPIO_InitTypeDef GPIO_InitStruct;

  /* GPIO Ports Clock Enable */
  __HAL_RCC_GPIOC_CLK_ENABLE();
 8001902:	4b30      	ldr	r3, [pc, #192]	; (80019c4 <MX_GPIO_Init+0xc8>)
 8001904:	699a      	ldr	r2, [r3, #24]
 8001906:	f042 0210 	orr.w	r2, r2, #16
 800190a:	619a      	str	r2, [r3, #24]
 800190c:	699a      	ldr	r2, [r3, #24]
 800190e:	f002 0210 	and.w	r2, r2, #16
 8001912:	9200      	str	r2, [sp, #0]
 8001914:	9a00      	ldr	r2, [sp, #0]
  __HAL_RCC_GPIOD_CLK_ENABLE();
 8001916:	699a      	ldr	r2, [r3, #24]
 8001918:	f042 0220 	orr.w	r2, r2, #32
 800191c:	619a      	str	r2, [r3, #24]
 800191e:	699a      	ldr	r2, [r3, #24]
 8001920:	f002 0220 	and.w	r2, r2, #32
 8001924:	9201      	str	r2, [sp, #4]
 8001926:	9a01      	ldr	r2, [sp, #4]
  __HAL_RCC_GPIOA_CLK_ENABLE();
 8001928:	699a      	ldr	r2, [r3, #24]
 800192a:	f042 0204 	orr.w	r2, r2, #4
 800192e:	619a      	str	r2, [r3, #24]
 8001930:	699a      	ldr	r2, [r3, #24]
 8001932:	f002 0204 	and.w	r2, r2, #4
 8001936:	9202      	str	r2, [sp, #8]
 8001938:	9a02      	ldr	r2, [sp, #8]
  __HAL_RCC_GPIOB_CLK_ENABLE();
 800193a:	699a      	ldr	r2, [r3, #24]
 800193c:	f042 0208 	orr.w	r2, r2, #8
 8001940:	619a      	str	r2, [r3, #24]
 8001942:	699b      	ldr	r3, [r3, #24]
 8001944:	f003 0308 	and.w	r3, r3, #8
 8001948:	9303      	str	r3, [sp, #12]
 800194a:	9b03      	ldr	r3, [sp, #12]

  /*Configure GPIO pin Output Level */
  HAL_GPIO_WritePin(GPIOC, LED1_Pin|LED2_Pin|MOTER_EN_Pin|L_CW_CCW_Pin 
 800194c:	4d1e      	ldr	r5, [pc, #120]	; (80019c8 <MX_GPIO_Init+0xcc>)
 800194e:	2200      	movs	r2, #0
 8001950:	f246 11c0 	movw	r1, #25024	; 0x61c0
 8001954:	4628      	mov	r0, r5
 8001956:	f7fe ff8e 	bl	8000876 <HAL_GPIO_WritePin>
                          |R_CW_CCW_Pin, GPIO_PIN_RESET);

  /*Configure GPIO pin Output Level */
  HAL_GPIO_WritePin(GPIOA, LED3_Pin|LED4_Pin|BATTERY_Pin, GPIO_PIN_RESET);
 800195a:	4e1c      	ldr	r6, [pc, #112]	; (80019cc <MX_GPIO_Init+0xd0>)
 800195c:	2200      	movs	r2, #0
 800195e:	2113      	movs	r1, #19
 8001960:	4630      	mov	r0, r6
 8001962:	f7fe ff88 	bl	8000876 <HAL_GPIO_WritePin>

  /*Configure GPIO pins : PCPin PCPin PCPin PCPin 
                           PCPin */
  GPIO_InitStruct.Pin = LED1_Pin|LED2_Pin|MOTER_EN_Pin|L_CW_CCW_Pin 
 8001966:	f246 13c0 	movw	r3, #25024	; 0x61c0
 800196a:	9304      	str	r3, [sp, #16]
                          |R_CW_CCW_Pin;
  GPIO_InitStruct.Mode = GPIO_MODE_OUTPUT_PP;
 800196c:	f04f 0801 	mov.w	r8, #1
 8001970:	f8cd 8014 	str.w	r8, [sp, #20]
  GPIO_InitStruct.Pull = GPIO_NOPULL;
 8001974:	2400      	movs	r4, #0
 8001976:	9406      	str	r4, [sp, #24]
  GPIO_InitStruct.Speed = GPIO_SPEED_FREQ_LOW;
 8001978:	2702      	movs	r7, #2
 800197a:	9707      	str	r7, [sp, #28]
  HAL_GPIO_Init(GPIOC, &GPIO_InitStruct);
 800197c:	a904      	add	r1, sp, #16
 800197e:	4628      	mov	r0, r5
 8001980:	f7fe fe74 	bl	800066c <HAL_GPIO_Init>

  /*Configure GPIO pins : PAPin PAPin PAPin */
  GPIO_InitStruct.Pin = LED3_Pin|LED4_Pin|BATTERY_Pin;
 8001984:	2313      	movs	r3, #19
 8001986:	9304      	str	r3, [sp, #16]
  GPIO_InitStruct.Mode = GPIO_MODE_OUTPUT_PP;
 8001988:	f8cd 8014 	str.w	r8, [sp, #20]
  GPIO_InitStruct.Pull = GPIO_NOPULL;
 800198c:	9406      	str	r4, [sp, #24]
  GPIO_InitStruct.Speed = GPIO_SPEED_FREQ_LOW;
 800198e:	9707      	str	r7, [sp, #28]
  HAL_GPIO_Init(GPIOA, &GPIO_InitStruct);
 8001990:	a904      	add	r1, sp, #16
 8001992:	4630      	mov	r0, r6
 8001994:	f7fe fe6a 	bl	800066c <HAL_GPIO_Init>

  /*Configure GPIO pins : PCPin PCPin */
  GPIO_InitStruct.Pin = SW3_Pin|SW2_Pin;
 8001998:	f44f 6340 	mov.w	r3, #3072	; 0xc00
 800199c:	9304      	str	r3, [sp, #16]
  GPIO_InitStruct.Mode = GPIO_MODE_INPUT;
 800199e:	9405      	str	r4, [sp, #20]
  GPIO_InitStruct.Pull = GPIO_NOPULL;
 80019a0:	9406      	str	r4, [sp, #24]
  HAL_GPIO_Init(GPIOC, &GPIO_InitStruct);
 80019a2:	a904      	add	r1, sp, #16
 80019a4:	4628      	mov	r0, r5
 80019a6:	f7fe fe61 	bl	800066c <HAL_GPIO_Init>

  /*Configure GPIO pins : PBPin PBPin PBPin PBPin 
                           PBPin */
  GPIO_InitStruct.Pin = BOOTO_SW1_Pin|SENSOR1_Pin|SENSOR2_Pin|SENSOR3_Pin 
 80019aa:	f44f 7378 	mov.w	r3, #992	; 0x3e0
 80019ae:	9304      	str	r3, [sp, #16]
                          |SENSOR4_Pin;
  GPIO_InitStruct.Mode = GPIO_MODE_INPUT;
 80019b0:	9405      	str	r4, [sp, #20]
  GPIO_InitStruct.Pull = GPIO_NOPULL;
 80019b2:	9406      	str	r4, [sp, #24]
  HAL_GPIO_Init(GPIOB, &GPIO_InitStruct);
 80019b4:	a904      	add	r1, sp, #16
 80019b6:	4806      	ldr	r0, [pc, #24]	; (80019d0 <MX_GPIO_Init+0xd4>)
 80019b8:	f7fe fe58 	bl	800066c <HAL_GPIO_Init>

}
 80019bc:	b008      	add	sp, #32
 80019be:	e8bd 81f0 	ldmia.w	sp!, {r4, r5, r6, r7, r8, pc}
 80019c2:	bf00      	nop
 80019c4:	40021000 	.word	0x40021000
 80019c8:	40011000 	.word	0x40011000
 80019cc:	40010800 	.word	0x40010800
 80019d0:	40010c00 	.word	0x40010c00

080019d4 <LED_ALL_OFF>:
	HAL_GPIO_WritePin( LED3_GPIO_Port , LED3_Pin , GPIO_PIN_SET );
	HAL_GPIO_WritePin( LED4_GPIO_Port , LED4_Pin , GPIO_PIN_SET );
}

void LED_ALL_OFF(void)
{
 80019d4:	b510      	push	{r4, lr}
	HAL_GPIO_WritePin( LED1_GPIO_Port , LED1_Pin , GPIO_PIN_RESET );
 80019d6:	4c0d      	ldr	r4, [pc, #52]	; (8001a0c <LED_ALL_OFF+0x38>)
 80019d8:	2200      	movs	r2, #0
 80019da:	f44f 5100 	mov.w	r1, #8192	; 0x2000
 80019de:	4620      	mov	r0, r4
 80019e0:	f7fe ff49 	bl	8000876 <HAL_GPIO_WritePin>
	HAL_GPIO_WritePin( LED2_GPIO_Port , LED2_Pin , GPIO_PIN_RESET );
 80019e4:	2200      	movs	r2, #0
 80019e6:	f44f 4180 	mov.w	r1, #16384	; 0x4000
 80019ea:	4620      	mov	r0, r4
 80019ec:	f7fe ff43 	bl	8000876 <HAL_GPIO_WritePin>
	HAL_GPIO_WritePin( LED3_GPIO_Port , LED3_Pin , GPIO_PIN_RESET );
 80019f0:	f5a4 6400 	sub.w	r4, r4, #2048	; 0x800
 80019f4:	2200      	movs	r2, #0
 80019f6:	2101      	movs	r1, #1
 80019f8:	4620      	mov	r0, r4
 80019fa:	f7fe ff3c 	bl	8000876 <HAL_GPIO_WritePin>
	HAL_GPIO_WritePin( LED4_GPIO_Port , LED4_Pin , GPIO_PIN_RESET );
 80019fe:	2200      	movs	r2, #0
 8001a00:	2102      	movs	r1, #2
 8001a02:	4620      	mov	r0, r4
 8001a04:	f7fe ff37 	bl	8000876 <HAL_GPIO_WritePin>
 8001a08:	bd10      	pop	{r4, pc}
 8001a0a:	bf00      	nop
 8001a0c:	40011000 	.word	0x40011000

08001a10 <LED_CONTROL>:
}

void LED_CONTROL(unsigned char pattern)
{
 8001a10:	b510      	push	{r4, lr}
	if( pattern == 0 )
 8001a12:	4604      	mov	r4, r0
 8001a14:	b310      	cbz	r0, 8001a5c <LED_CONTROL+0x4c>
		LED_ALL_OFF();
	if( ( pattern & 0b0001 ) == 0b0001 )
 8001a16:	f014 0f01 	tst.w	r4, #1
 8001a1a:	d022      	beq.n	8001a62 <LED_CONTROL+0x52>
		HAL_GPIO_WritePin( LED1_GPIO_Port , LED1_Pin , GPIO_PIN_SET );
 8001a1c:	2201      	movs	r2, #1
 8001a1e:	f44f 5100 	mov.w	r1, #8192	; 0x2000
 8001a22:	481d      	ldr	r0, [pc, #116]	; (8001a98 <LED_CONTROL+0x88>)
 8001a24:	f7fe ff27 	bl	8000876 <HAL_GPIO_WritePin>
	else
		HAL_GPIO_WritePin( LED1_GPIO_Port , LED1_Pin , GPIO_PIN_RESET );
	if( ( pattern & 0b0010 ) == 0b0010 )
 8001a28:	f014 0f02 	tst.w	r4, #2
 8001a2c:	d020      	beq.n	8001a70 <LED_CONTROL+0x60>
		HAL_GPIO_WritePin( LED2_GPIO_Port , LED2_Pin , GPIO_PIN_SET );
 8001a2e:	2201      	movs	r2, #1
 8001a30:	f44f 4180 	mov.w	r1, #16384	; 0x4000
 8001a34:	4818      	ldr	r0, [pc, #96]	; (8001a98 <LED_CONTROL+0x88>)
 8001a36:	f7fe ff1e 	bl	8000876 <HAL_GPIO_WritePin>
	else
		HAL_GPIO_WritePin( LED2_GPIO_Port , LED2_Pin , GPIO_PIN_RESET );
	if( ( pattern & 0b0100 ) == 0b0100 )
 8001a3a:	f014 0f04 	tst.w	r4, #4
 8001a3e:	d01e      	beq.n	8001a7e <LED_CONTROL+0x6e>
		HAL_GPIO_WritePin( LED3_GPIO_Port , LED3_Pin , GPIO_PIN_SET );
 8001a40:	2201      	movs	r2, #1
 8001a42:	4611      	mov	r1, r2
 8001a44:	4815      	ldr	r0, [pc, #84]	; (8001a9c <LED_CONTROL+0x8c>)
 8001a46:	f7fe ff16 	bl	8000876 <HAL_GPIO_WritePin>
	else
		HAL_GPIO_WritePin( LED3_GPIO_Port , LED3_Pin , GPIO_PIN_RESET );
	if( ( pattern & 0b1000 ) == 0b1000 )
 8001a4a:	f014 0f08 	tst.w	r4, #8
 8001a4e:	d11c      	bne.n	8001a8a <LED_CONTROL+0x7a>
		HAL_GPIO_WritePin( LED4_GPIO_Port , LED4_Pin , GPIO_PIN_SET );
	else
		HAL_GPIO_WritePin( LED4_GPIO_Port , LED4_Pin , GPIO_PIN_RESET );
 8001a50:	2200      	movs	r2, #0
 8001a52:	2102      	movs	r1, #2
 8001a54:	4811      	ldr	r0, [pc, #68]	; (8001a9c <LED_CONTROL+0x8c>)
 8001a56:	f7fe ff0e 	bl	8000876 <HAL_GPIO_WritePin>
 8001a5a:	bd10      	pop	{r4, pc}
		LED_ALL_OFF();
 8001a5c:	f7ff ffba 	bl	80019d4 <LED_ALL_OFF>
 8001a60:	e7d9      	b.n	8001a16 <LED_CONTROL+0x6>
		HAL_GPIO_WritePin( LED1_GPIO_Port , LED1_Pin , GPIO_PIN_RESET );
 8001a62:	2200      	movs	r2, #0
 8001a64:	f44f 5100 	mov.w	r1, #8192	; 0x2000
 8001a68:	480b      	ldr	r0, [pc, #44]	; (8001a98 <LED_CONTROL+0x88>)
 8001a6a:	f7fe ff04 	bl	8000876 <HAL_GPIO_WritePin>
 8001a6e:	e7db      	b.n	8001a28 <LED_CONTROL+0x18>
		HAL_GPIO_WritePin( LED2_GPIO_Port , LED2_Pin , GPIO_PIN_RESET );
 8001a70:	2200      	movs	r2, #0
 8001a72:	f44f 4180 	mov.w	r1, #16384	; 0x4000
 8001a76:	4808      	ldr	r0, [pc, #32]	; (8001a98 <LED_CONTROL+0x88>)
 8001a78:	f7fe fefd 	bl	8000876 <HAL_GPIO_WritePin>
 8001a7c:	e7dd      	b.n	8001a3a <LED_CONTROL+0x2a>
		HAL_GPIO_WritePin( LED3_GPIO_Port , LED3_Pin , GPIO_PIN_RESET );
 8001a7e:	2200      	movs	r2, #0
 8001a80:	2101      	movs	r1, #1
 8001a82:	4806      	ldr	r0, [pc, #24]	; (8001a9c <LED_CONTROL+0x8c>)
 8001a84:	f7fe fef7 	bl	8000876 <HAL_GPIO_WritePin>
 8001a88:	e7df      	b.n	8001a4a <LED_CONTROL+0x3a>
		HAL_GPIO_WritePin( LED4_GPIO_Port , LED4_Pin , GPIO_PIN_SET );
 8001a8a:	2201      	movs	r2, #1
 8001a8c:	2102      	movs	r1, #2
 8001a8e:	4803      	ldr	r0, [pc, #12]	; (8001a9c <LED_CONTROL+0x8c>)
 8001a90:	f7fe fef1 	bl	8000876 <HAL_GPIO_WritePin>
 8001a94:	bd10      	pop	{r4, pc}
 8001a96:	bf00      	nop
 8001a98:	40011000 	.word	0x40011000
 8001a9c:	40010800 	.word	0x40010800

08001aa0 <_Error_Handler>:
  * @param  file: The file name as string.
  * @param  line: The line in file as a number.
  * @retval None
  */
void _Error_Handler(char *file, int line)
{
 8001aa0:	e7fe      	b.n	8001aa0 <_Error_Handler>
	...

08001aa4 <SystemClock_Config>:
{
 8001aa4:	b500      	push	{lr}
 8001aa6:	b097      	sub	sp, #92	; 0x5c
  RCC_OscInitStruct.OscillatorType = RCC_OSCILLATORTYPE_HSI;
 8001aa8:	2302      	movs	r3, #2
 8001aaa:	930c      	str	r3, [sp, #48]	; 0x30
  RCC_OscInitStruct.HSIState = RCC_HSI_ON;
 8001aac:	2201      	movs	r2, #1
 8001aae:	9210      	str	r2, [sp, #64]	; 0x40
  RCC_OscInitStruct.HSICalibrationValue = 16;
 8001ab0:	2210      	movs	r2, #16
 8001ab2:	9211      	str	r2, [sp, #68]	; 0x44
  RCC_OscInitStruct.PLL.PLLState = RCC_PLL_ON;
 8001ab4:	9313      	str	r3, [sp, #76]	; 0x4c
  RCC_OscInitStruct.PLL.PLLSource = RCC_PLLSOURCE_HSI_DIV2;
 8001ab6:	2300      	movs	r3, #0
 8001ab8:	9314      	str	r3, [sp, #80]	; 0x50
  RCC_OscInitStruct.PLL.PLLMUL = RCC_PLL_MUL16;
 8001aba:	f44f 1360 	mov.w	r3, #3670016	; 0x380000
 8001abe:	9315      	str	r3, [sp, #84]	; 0x54
  if (HAL_RCC_OscConfig(&RCC_OscInitStruct) != HAL_OK)
 8001ac0:	a80c      	add	r0, sp, #48	; 0x30
 8001ac2:	f7fe fef5 	bl	80008b0 <HAL_RCC_OscConfig>
 8001ac6:	bb50      	cbnz	r0, 8001b1e <SystemClock_Config+0x7a>
  RCC_ClkInitStruct.ClockType = RCC_CLOCKTYPE_HCLK|RCC_CLOCKTYPE_SYSCLK
 8001ac8:	230f      	movs	r3, #15
 8001aca:	9307      	str	r3, [sp, #28]
  RCC_ClkInitStruct.SYSCLKSource = RCC_SYSCLKSOURCE_PLLCLK;
 8001acc:	2102      	movs	r1, #2
 8001ace:	9108      	str	r1, [sp, #32]
  RCC_ClkInitStruct.AHBCLKDivider = RCC_SYSCLK_DIV1;
 8001ad0:	2300      	movs	r3, #0
 8001ad2:	9309      	str	r3, [sp, #36]	; 0x24
  RCC_ClkInitStruct.APB1CLKDivider = RCC_HCLK_DIV2;
 8001ad4:	f44f 6280 	mov.w	r2, #1024	; 0x400
 8001ad8:	920a      	str	r2, [sp, #40]	; 0x28
  RCC_ClkInitStruct.APB2CLKDivider = RCC_HCLK_DIV1;
 8001ada:	930b      	str	r3, [sp, #44]	; 0x2c
  if (HAL_RCC_ClockConfig(&RCC_ClkInitStruct, FLASH_LATENCY_2) != HAL_OK)
 8001adc:	a807      	add	r0, sp, #28
 8001ade:	f7ff f90d 	bl	8000cfc <HAL_RCC_ClockConfig>
 8001ae2:	bb00      	cbnz	r0, 8001b26 <SystemClock_Config+0x82>
  PeriphClkInit.PeriphClockSelection = RCC_PERIPHCLK_ADC;
 8001ae4:	2302      	movs	r3, #2
 8001ae6:	9301      	str	r3, [sp, #4]
  PeriphClkInit.AdcClockSelection = RCC_ADCPCLK2_DIV8;
 8001ae8:	f44f 4340 	mov.w	r3, #49152	; 0xc000
 8001aec:	9303      	str	r3, [sp, #12]
  if (HAL_RCCEx_PeriphCLKConfig(&PeriphClkInit) != HAL_OK)
 8001aee:	a801      	add	r0, sp, #4
 8001af0:	f7ff f9e6 	bl	8000ec0 <HAL_RCCEx_PeriphCLKConfig>
 8001af4:	b9d8      	cbnz	r0, 8001b2e <SystemClock_Config+0x8a>
  HAL_SYSTICK_Config(HAL_RCC_GetHCLKFreq()/1000);
 8001af6:	f7ff f9bd 	bl	8000e74 <HAL_RCC_GetHCLKFreq>
 8001afa:	4b0f      	ldr	r3, [pc, #60]	; (8001b38 <SystemClock_Config+0x94>)
 8001afc:	fba3 3000 	umull	r3, r0, r3, r0
 8001b00:	0980      	lsrs	r0, r0, #6
 8001b02:	f7fe fd87 	bl	8000614 <HAL_SYSTICK_Config>
  HAL_SYSTICK_CLKSourceConfig(SYSTICK_CLKSOURCE_HCLK);
 8001b06:	2004      	movs	r0, #4
 8001b08:	f7fe fd9a 	bl	8000640 <HAL_SYSTICK_CLKSourceConfig>
  HAL_NVIC_SetPriority(SysTick_IRQn, 0, 0);
 8001b0c:	2200      	movs	r2, #0
 8001b0e:	4611      	mov	r1, r2
 8001b10:	f04f 30ff 	mov.w	r0, #4294967295
 8001b14:	f7fe fd4c 	bl	80005b0 <HAL_NVIC_SetPriority>
}
 8001b18:	b017      	add	sp, #92	; 0x5c
 8001b1a:	f85d fb04 	ldr.w	pc, [sp], #4
    _Error_Handler(__FILE__, __LINE__);
 8001b1e:	21a3      	movs	r1, #163	; 0xa3
 8001b20:	4806      	ldr	r0, [pc, #24]	; (8001b3c <SystemClock_Config+0x98>)
 8001b22:	f7ff ffbd 	bl	8001aa0 <_Error_Handler>
    _Error_Handler(__FILE__, __LINE__);
 8001b26:	21b1      	movs	r1, #177	; 0xb1
 8001b28:	4804      	ldr	r0, [pc, #16]	; (8001b3c <SystemClock_Config+0x98>)
 8001b2a:	f7ff ffb9 	bl	8001aa0 <_Error_Handler>
    _Error_Handler(__FILE__, __LINE__);
 8001b2e:	21b8      	movs	r1, #184	; 0xb8
 8001b30:	4802      	ldr	r0, [pc, #8]	; (8001b3c <SystemClock_Config+0x98>)
 8001b32:	f7ff ffb5 	bl	8001aa0 <_Error_Handler>
 8001b36:	bf00      	nop
 8001b38:	10624dd3 	.word	0x10624dd3
 8001b3c:	08002e14 	.word	0x08002e14

08001b40 <main>:
{
 8001b40:	b508      	push	{r3, lr}
  HAL_Init();
 8001b42:	f7fe fb93 	bl	800026c <HAL_Init>
  SystemClock_Config();
 8001b46:	f7ff ffad 	bl	8001aa4 <SystemClock_Config>
  MX_GPIO_Init();
 8001b4a:	f7ff fed7 	bl	80018fc <MX_GPIO_Init>
  MX_ADC1_Init();
 8001b4e:	f7ff fe83 	bl	8001858 <MX_ADC1_Init>
  MX_TIM2_Init();
 8001b52:	f000 fbd9 	bl	8002308 <MX_TIM2_Init>
  MX_TIM4_Init();
 8001b56:	f000 fb0f 	bl	8002178 <MX_TIM4_Init>
  MX_TIM5_Init();
 8001b5a:	f000 fc13 	bl	8002384 <MX_TIM5_Init>
  MX_TIM8_Init();
 8001b5e:	f000 fc4f 	bl	8002400 <MX_TIM8_Init>
  MX_USART1_UART_Init();
 8001b62:	f000 fca3 	bl	80024ac <MX_USART1_UART_Init>
  setbuf(stdout, NULL);
 8001b66:	4b05      	ldr	r3, [pc, #20]	; (8001b7c <main+0x3c>)
 8001b68:	681b      	ldr	r3, [r3, #0]
 8001b6a:	2100      	movs	r1, #0
 8001b6c:	6898      	ldr	r0, [r3, #8]
 8001b6e:	f000 fd33 	bl	80025d8 <setbuf>
	  MODE_RUN( MODE_SELECT() );
 8001b72:	f000 f805 	bl	8001b80 <MODE_SELECT>
 8001b76:	f000 f855 	bl	8001c24 <MODE_RUN>
 8001b7a:	e7fa      	b.n	8001b72 <main+0x32>
 8001b7c:	2000000c 	.word	0x2000000c

08001b80 <MODE_SELECT>:
#include "motion.h"
#include "led.h"
#include "mode.h"

int8_t MODE_SELECT(void)
{
 8001b80:	b510      	push	{r4, lr}
	int mode = 0;
	int mode_max = 4;
	LED_CONTROL(mode);
 8001b82:	2000      	movs	r0, #0
 8001b84:	f7ff ff44 	bl	8001a10 <LED_CONTROL>
	HAL_Delay(1000);
 8001b88:	f44f 707a 	mov.w	r0, #1000	; 0x3e8
 8001b8c:	f7fe fb92 	bl	80002b4 <HAL_Delay>
	int mode = 0;
 8001b90:	2400      	movs	r4, #0
 8001b92:	e017      	b.n	8001bc4 <MODE_SELECT+0x44>
	{
		LED_CONTROL(mode);

		while( (HAL_GPIO_ReadPin(BOOTO_SW1_GPIO_Port,BOOTO_SW1_Pin) == GPIO_PIN_RESET) && (HAL_GPIO_ReadPin(SW2_GPIO_Port,SW2_Pin) == GPIO_PIN_RESET) && (HAL_GPIO_ReadPin(SW3_GPIO_Port,SW3_Pin) == GPIO_PIN_RESET) );

		if(HAL_GPIO_ReadPin(BOOTO_SW1_GPIO_Port,BOOTO_SW1_Pin) == GPIO_PIN_SET)
 8001b94:	2120      	movs	r1, #32
 8001b96:	4821      	ldr	r0, [pc, #132]	; (8001c1c <MODE_SELECT+0x9c>)
 8001b98:	f7fe fe66 	bl	8000868 <HAL_GPIO_ReadPin>
 8001b9c:	2801      	cmp	r0, #1
 8001b9e:	d02f      	beq.n	8001c00 <MODE_SELECT+0x80>
			/*else
			{
				mode = 0;
			}*/
		}
		if(HAL_GPIO_ReadPin(SW2_GPIO_Port,SW2_Pin) == GPIO_PIN_SET)
 8001ba0:	f44f 6100 	mov.w	r1, #2048	; 0x800
 8001ba4:	481e      	ldr	r0, [pc, #120]	; (8001c20 <MODE_SELECT+0xa0>)
 8001ba6:	f7fe fe5f 	bl	8000868 <HAL_GPIO_ReadPin>
 8001baa:	2801      	cmp	r0, #1
 8001bac:	d02c      	beq.n	8001c08 <MODE_SELECT+0x88>
			/*else
			{
				mode = mode_max;
			}*/
		}
		if(HAL_GPIO_ReadPin(SW3_GPIO_Port,SW3_Pin) == GPIO_PIN_SET) break;
 8001bae:	f44f 6180 	mov.w	r1, #1024	; 0x400
 8001bb2:	481b      	ldr	r0, [pc, #108]	; (8001c20 <MODE_SELECT+0xa0>)
 8001bb4:	f7fe fe58 	bl	8000868 <HAL_GPIO_ReadPin>
 8001bb8:	2801      	cmp	r0, #1
 8001bba:	d029      	beq.n	8001c10 <MODE_SELECT+0x90>

		HAL_Delay(300);
 8001bbc:	f44f 7096 	mov.w	r0, #300	; 0x12c
 8001bc0:	f7fe fb78 	bl	80002b4 <HAL_Delay>
		LED_CONTROL(mode);
 8001bc4:	b2e0      	uxtb	r0, r4
 8001bc6:	f7ff ff23 	bl	8001a10 <LED_CONTROL>
		while( (HAL_GPIO_ReadPin(BOOTO_SW1_GPIO_Port,BOOTO_SW1_Pin) == GPIO_PIN_RESET) && (HAL_GPIO_ReadPin(SW2_GPIO_Port,SW2_Pin) == GPIO_PIN_RESET) && (HAL_GPIO_ReadPin(SW3_GPIO_Port,SW3_Pin) == GPIO_PIN_RESET) );
 8001bca:	2120      	movs	r1, #32
 8001bcc:	4813      	ldr	r0, [pc, #76]	; (8001c1c <MODE_SELECT+0x9c>)
 8001bce:	f7fe fe4b 	bl	8000868 <HAL_GPIO_ReadPin>
 8001bd2:	2800      	cmp	r0, #0
 8001bd4:	d1de      	bne.n	8001b94 <MODE_SELECT+0x14>
 8001bd6:	f44f 6100 	mov.w	r1, #2048	; 0x800
 8001bda:	f100 4080 	add.w	r0, r0, #1073741824	; 0x40000000
 8001bde:	f500 3088 	add.w	r0, r0, #69632	; 0x11000
 8001be2:	f7fe fe41 	bl	8000868 <HAL_GPIO_ReadPin>
 8001be6:	2800      	cmp	r0, #0
 8001be8:	d1d4      	bne.n	8001b94 <MODE_SELECT+0x14>
 8001bea:	f44f 6180 	mov.w	r1, #1024	; 0x400
 8001bee:	f100 4080 	add.w	r0, r0, #1073741824	; 0x40000000
 8001bf2:	f500 3088 	add.w	r0, r0, #69632	; 0x11000
 8001bf6:	f7fe fe37 	bl	8000868 <HAL_GPIO_ReadPin>
 8001bfa:	2800      	cmp	r0, #0
 8001bfc:	d0e5      	beq.n	8001bca <MODE_SELECT+0x4a>
 8001bfe:	e7c9      	b.n	8001b94 <MODE_SELECT+0x14>
			if(mode <= mode_max)
 8001c00:	2c04      	cmp	r4, #4
 8001c02:	dccd      	bgt.n	8001ba0 <MODE_SELECT+0x20>
				mode ++;
 8001c04:	3401      	adds	r4, #1
 8001c06:	e7cb      	b.n	8001ba0 <MODE_SELECT+0x20>
			if(mode >= 0)
 8001c08:	2c00      	cmp	r4, #0
 8001c0a:	dbd0      	blt.n	8001bae <MODE_SELECT+0x2e>
				mode --;
 8001c0c:	3c01      	subs	r4, #1
 8001c0e:	e7ce      	b.n	8001bae <MODE_SELECT+0x2e>
	}

	HAL_Delay(300);
 8001c10:	f44f 7096 	mov.w	r0, #300	; 0x12c
 8001c14:	f7fe fb4e 	bl	80002b4 <HAL_Delay>
	return mode;
}
 8001c18:	b260      	sxtb	r0, r4
 8001c1a:	bd10      	pop	{r4, pc}
 8001c1c:	40010c00 	.word	0x40010c00
 8001c20:	40011000 	.word	0x40011000

08001c24 <MODE_RUN>:

void MODE_RUN(int8_t mode)
{
 8001c24:	b510      	push	{r4, lr}
	switch(mode)
 8001c26:	2804      	cmp	r0, #4
 8001c28:	d86c      	bhi.n	8001d04 <MODE_RUN+0xe0>
 8001c2a:	e8df f000 	tbb	[pc, r0]
 8001c2e:	1b03      	.short	0x1b03
 8001c30:	4532      	.short	0x4532
 8001c32:	58          	.byte	0x58
 8001c33:	00          	.byte	0x00
	{
	//Oi
	case 0:
		HAL_Delay(1000);
 8001c34:	f44f 707a 	mov.w	r0, #1000	; 0x3e8
 8001c38:	f7fe fb3c 	bl	80002b4 <HAL_Delay>
		MOTION_ENABLE();
 8001c3c:	f000 f866 	bl	8001d0c <MOTION_ENABLE>
		MOTION_STRAIGHT( 6400 , 6400 );
 8001c40:	f44f 51c8 	mov.w	r1, #6400	; 0x1900
 8001c44:	4608      	mov	r0, r1
 8001c46:	f000 f933 	bl	8001eb0 <MOTION_STRAIGHT>
		HAL_Delay(1000);
 8001c4a:	f44f 707a 	mov.w	r0, #1000	; 0x3e8
 8001c4e:	f7fe fb31 	bl	80002b4 <HAL_Delay>
		MOTION_PRES_RESET();
 8001c52:	f000 f90f 	bl	8001e74 <MOTION_PRES_RESET>
		HAL_Delay(1000);
 8001c56:	f44f 707a 	mov.w	r0, #1000	; 0x3e8
 8001c5a:	f7fe fb2b 	bl	80002b4 <HAL_Delay>
		MOTION_DISABLE();
 8001c5e:	f000 f89f 	bl	8001da0 <MOTION_DISABLE>
		break;
 8001c62:	bd10      	pop	{r4, pc}
	//
	case 1:
		HAL_Delay(1000);
 8001c64:	f44f 707a 	mov.w	r0, #1000	; 0x3e8
 8001c68:	f7fe fb24 	bl	80002b4 <HAL_Delay>
		MOTION_ENABLE();
 8001c6c:	f000 f84e 	bl	8001d0c <MOTION_ENABLE>
		MOTION_STRAIGHT( -6400 , -6400 );
 8001c70:	4825      	ldr	r0, [pc, #148]	; (8001d08 <MODE_RUN+0xe4>)
 8001c72:	4601      	mov	r1, r0
 8001c74:	f000 f91c 	bl	8001eb0 <MOTION_STRAIGHT>
		HAL_Delay(1000);
 8001c78:	f44f 707a 	mov.w	r0, #1000	; 0x3e8
 8001c7c:	f7fe fb1a 	bl	80002b4 <HAL_Delay>
		MOTION_PRES_RESET();
 8001c80:	f000 f8f8 	bl	8001e74 <MOTION_PRES_RESET>
		HAL_Delay(1000);
 8001c84:	f44f 707a 	mov.w	r0, #1000	; 0x3e8
 8001c88:	f7fe fb14 	bl	80002b4 <HAL_Delay>
		MOTION_DISABLE();
 8001c8c:	f000 f888 	bl	8001da0 <MOTION_DISABLE>
		break;
 8001c90:	bd10      	pop	{r4, pc}
	//90xE]
	case 2:
		HAL_Delay(1000);
 8001c92:	f44f 707a 	mov.w	r0, #1000	; 0x3e8
 8001c96:	f7fe fb0d 	bl	80002b4 <HAL_Delay>
		MOTION_ENABLE();
 8001c9a:	f000 f837 	bl	8001d0c <MOTION_ENABLE>
		for(int i = 0 ; i < 4 ; i ++)
 8001c9e:	2400      	movs	r4, #0
 8001ca0:	e006      	b.n	8001cb0 <MODE_RUN+0x8c>
		{
			MOTION_TURN_RIGHT();
 8001ca2:	f000 f943 	bl	8001f2c <MOTION_TURN_RIGHT>
			HAL_Delay(1000);
 8001ca6:	f44f 707a 	mov.w	r0, #1000	; 0x3e8
 8001caa:	f7fe fb03 	bl	80002b4 <HAL_Delay>
		for(int i = 0 ; i < 4 ; i ++)
 8001cae:	3401      	adds	r4, #1
 8001cb0:	2c03      	cmp	r4, #3
 8001cb2:	ddf6      	ble.n	8001ca2 <MODE_RUN+0x7e>
		}
		MOTION_DISABLE();
 8001cb4:	f000 f874 	bl	8001da0 <MOTION_DISABLE>
	//90x]
	case 3:
		HAL_Delay(1000);
 8001cb8:	f44f 707a 	mov.w	r0, #1000	; 0x3e8
 8001cbc:	f7fe fafa 	bl	80002b4 <HAL_Delay>
		MOTION_ENABLE();
 8001cc0:	f000 f824 	bl	8001d0c <MOTION_ENABLE>
		for(int i = 0 ; i < 4 ; i ++)
 8001cc4:	2400      	movs	r4, #0
 8001cc6:	e006      	b.n	8001cd6 <MODE_RUN+0xb2>
		{
			MOTION_TURN_LEFT();
 8001cc8:	f000 f966 	bl	8001f98 <MOTION_TURN_LEFT>
			HAL_Delay(1000);
 8001ccc:	f44f 707a 	mov.w	r0, #1000	; 0x3e8
 8001cd0:	f7fe faf0 	bl	80002b4 <HAL_Delay>
		for(int i = 0 ; i < 4 ; i ++)
 8001cd4:	3401      	adds	r4, #1
 8001cd6:	2c03      	cmp	r4, #3
 8001cd8:	ddf6      	ble.n	8001cc8 <MODE_RUN+0xa4>
		}
		MOTION_DISABLE();
 8001cda:	f000 f861 	bl	8001da0 <MOTION_DISABLE>
	//180x]
	case 4:
		HAL_Delay(1000);
 8001cde:	f44f 707a 	mov.w	r0, #1000	; 0x3e8
 8001ce2:	f7fe fae7 	bl	80002b4 <HAL_Delay>
		MOTION_ENABLE();
 8001ce6:	f000 f811 	bl	8001d0c <MOTION_ENABLE>
		for(int i = 0 ; i < 2 ; i ++)
 8001cea:	2400      	movs	r4, #0
 8001cec:	e006      	b.n	8001cfc <MODE_RUN+0xd8>
		{
			MOTION_U_TURN();
 8001cee:	f000 f989 	bl	8002004 <MOTION_U_TURN>
			HAL_Delay(1000);
 8001cf2:	f44f 707a 	mov.w	r0, #1000	; 0x3e8
 8001cf6:	f7fe fadd 	bl	80002b4 <HAL_Delay>
		for(int i = 0 ; i < 2 ; i ++)
 8001cfa:	3401      	adds	r4, #1
 8001cfc:	2c01      	cmp	r4, #1
 8001cfe:	ddf6      	ble.n	8001cee <MODE_RUN+0xca>
		}
		MOTION_DISABLE();
 8001d00:	f000 f84e 	bl	8001da0 <MOTION_DISABLE>
 8001d04:	bd10      	pop	{r4, pc}
 8001d06:	bf00      	nop
 8001d08:	ffffe700 	.word	0xffffe700

08001d0c <MOTION_ENABLE>:
#include "motion.h"

TIM_OC_InitTypeDef sConfigOC;

void MOTION_ENABLE(void)
{
 8001d0c:	b508      	push	{r3, lr}
	  sConfigOC.OCMode = TIM_OCMODE_PWM1;
 8001d0e:	491f      	ldr	r1, [pc, #124]	; (8001d8c <MOTION_ENABLE+0x80>)
 8001d10:	2360      	movs	r3, #96	; 0x60
 8001d12:	600b      	str	r3, [r1, #0]
	  sConfigOC.Pulse = 1;
 8001d14:	2301      	movs	r3, #1
 8001d16:	604b      	str	r3, [r1, #4]
	  sConfigOC.OCPolarity = TIM_OCPOLARITY_HIGH;
 8001d18:	2300      	movs	r3, #0
 8001d1a:	608b      	str	r3, [r1, #8]
	  sConfigOC.OCFastMode = TIM_OCFAST_DISABLE;
 8001d1c:	610b      	str	r3, [r1, #16]
	  if (HAL_TIM_PWM_ConfigChannel(&htim2, &sConfigOC, TIM_CHANNEL_3) != HAL_OK)
 8001d1e:	2208      	movs	r2, #8
 8001d20:	481b      	ldr	r0, [pc, #108]	; (8001d90 <MOTION_ENABLE+0x84>)
 8001d22:	f7ff fb65 	bl	80013f0 <HAL_TIM_PWM_ConfigChannel>
 8001d26:	b9e0      	cbnz	r0, 8001d62 <MOTION_ENABLE+0x56>
	  {
	    _Error_Handler(__FILE__, __LINE__);
	  }

	  sConfigOC.OCMode = TIM_OCMODE_PWM1;
 8001d28:	4918      	ldr	r1, [pc, #96]	; (8001d8c <MOTION_ENABLE+0x80>)
 8001d2a:	2360      	movs	r3, #96	; 0x60
 8001d2c:	600b      	str	r3, [r1, #0]
	  sConfigOC.Pulse = 1;
 8001d2e:	2301      	movs	r3, #1
 8001d30:	604b      	str	r3, [r1, #4]
	  sConfigOC.OCPolarity = TIM_OCPOLARITY_HIGH;
 8001d32:	2300      	movs	r3, #0
 8001d34:	608b      	str	r3, [r1, #8]
	  sConfigOC.OCFastMode = TIM_OCFAST_DISABLE;
 8001d36:	610b      	str	r3, [r1, #16]
	  if (HAL_TIM_PWM_ConfigChannel(&htim8, &sConfigOC, TIM_CHANNEL_4) != HAL_OK)
 8001d38:	220c      	movs	r2, #12
 8001d3a:	4816      	ldr	r0, [pc, #88]	; (8001d94 <MOTION_ENABLE+0x88>)
 8001d3c:	f7ff fb58 	bl	80013f0 <HAL_TIM_PWM_ConfigChannel>
 8001d40:	b9a0      	cbnz	r0, 8001d6c <MOTION_ENABLE+0x60>
	  {
	    _Error_Handler(__FILE__, __LINE__);
	  }

	  if( HAL_TIM_PWM_Start(&htim2,TIM_CHANNEL_3) != HAL_OK)
 8001d42:	2108      	movs	r1, #8
 8001d44:	4812      	ldr	r0, [pc, #72]	; (8001d90 <MOTION_ENABLE+0x84>)
 8001d46:	f7ff fbcf 	bl	80014e8 <HAL_TIM_PWM_Start>
 8001d4a:	b9a0      	cbnz	r0, 8001d76 <MOTION_ENABLE+0x6a>
	  {
	    _Error_Handler(__FILE__, __LINE__);
	  }
	  if( HAL_TIM_PWM_Start(&htim8,TIM_CHANNEL_4) != HAL_OK)
 8001d4c:	210c      	movs	r1, #12
 8001d4e:	4811      	ldr	r0, [pc, #68]	; (8001d94 <MOTION_ENABLE+0x88>)
 8001d50:	f7ff fbca 	bl	80014e8 <HAL_TIM_PWM_Start>
 8001d54:	b9a0      	cbnz	r0, 8001d80 <MOTION_ENABLE+0x74>
	  {
	    _Error_Handler(__FILE__, __LINE__);
	  }

	  HAL_GPIO_WritePin(MOTER_EN_GPIO_Port,MOTER_EN_Pin,GPIO_PIN_SET);
 8001d56:	2201      	movs	r2, #1
 8001d58:	2140      	movs	r1, #64	; 0x40
 8001d5a:	480f      	ldr	r0, [pc, #60]	; (8001d98 <MOTION_ENABLE+0x8c>)
 8001d5c:	f7fe fd8b 	bl	8000876 <HAL_GPIO_WritePin>
 8001d60:	bd08      	pop	{r3, pc}
	    _Error_Handler(__FILE__, __LINE__);
 8001d62:	211a      	movs	r1, #26
 8001d64:	480d      	ldr	r0, [pc, #52]	; (8001d9c <MOTION_ENABLE+0x90>)
 8001d66:	f7ff fe9b 	bl	8001aa0 <_Error_Handler>
 8001d6a:	e7dd      	b.n	8001d28 <MOTION_ENABLE+0x1c>
	    _Error_Handler(__FILE__, __LINE__);
 8001d6c:	2123      	movs	r1, #35	; 0x23
 8001d6e:	480b      	ldr	r0, [pc, #44]	; (8001d9c <MOTION_ENABLE+0x90>)
 8001d70:	f7ff fe96 	bl	8001aa0 <_Error_Handler>
 8001d74:	e7e5      	b.n	8001d42 <MOTION_ENABLE+0x36>
	    _Error_Handler(__FILE__, __LINE__);
 8001d76:	2128      	movs	r1, #40	; 0x28
 8001d78:	4808      	ldr	r0, [pc, #32]	; (8001d9c <MOTION_ENABLE+0x90>)
 8001d7a:	f7ff fe91 	bl	8001aa0 <_Error_Handler>
 8001d7e:	e7e5      	b.n	8001d4c <MOTION_ENABLE+0x40>
	    _Error_Handler(__FILE__, __LINE__);
 8001d80:	212c      	movs	r1, #44	; 0x2c
 8001d82:	4806      	ldr	r0, [pc, #24]	; (8001d9c <MOTION_ENABLE+0x90>)
 8001d84:	f7ff fe8c 	bl	8001aa0 <_Error_Handler>
 8001d88:	e7e5      	b.n	8001d56 <MOTION_ENABLE+0x4a>
 8001d8a:	bf00      	nop
 8001d8c:	200000cc 	.word	0x200000cc
 8001d90:	200001a8 	.word	0x200001a8
 8001d94:	200000e8 	.word	0x200000e8
 8001d98:	40011000 	.word	0x40011000
 8001d9c:	08002e24 	.word	0x08002e24

08001da0 <MOTION_DISABLE>:
}

void MOTION_DISABLE(void)
{
 8001da0:	b510      	push	{r4, lr}
	  sConfigOC.OCMode = TIM_OCMODE_PWM1;
 8001da2:	492f      	ldr	r1, [pc, #188]	; (8001e60 <MOTION_DISABLE+0xc0>)
 8001da4:	2360      	movs	r3, #96	; 0x60
 8001da6:	600b      	str	r3, [r1, #0]
	  sConfigOC.Pulse = 0;
 8001da8:	2300      	movs	r3, #0
 8001daa:	604b      	str	r3, [r1, #4]
	  sConfigOC.OCPolarity = TIM_OCPOLARITY_HIGH;
 8001dac:	608b      	str	r3, [r1, #8]
	  sConfigOC.OCFastMode = TIM_OCFAST_DISABLE;
 8001dae:	610b      	str	r3, [r1, #16]
	  if (HAL_TIM_PWM_ConfigChannel(&htim2, &sConfigOC, TIM_CHANNEL_3) != HAL_OK)
 8001db0:	2208      	movs	r2, #8
 8001db2:	482c      	ldr	r0, [pc, #176]	; (8001e64 <MOTION_DISABLE+0xc4>)
 8001db4:	f7ff fb1c 	bl	80013f0 <HAL_TIM_PWM_ConfigChannel>
 8001db8:	2800      	cmp	r0, #0
 8001dba:	d133      	bne.n	8001e24 <MOTION_DISABLE+0x84>
	  {
	    _Error_Handler(__FILE__, __LINE__);
	  }

	  sConfigOC.OCMode = TIM_OCMODE_PWM1;
 8001dbc:	4928      	ldr	r1, [pc, #160]	; (8001e60 <MOTION_DISABLE+0xc0>)
 8001dbe:	2360      	movs	r3, #96	; 0x60
 8001dc0:	600b      	str	r3, [r1, #0]
	  sConfigOC.Pulse = 0;
 8001dc2:	2300      	movs	r3, #0
 8001dc4:	604b      	str	r3, [r1, #4]
	  sConfigOC.OCPolarity = TIM_OCPOLARITY_HIGH;
 8001dc6:	608b      	str	r3, [r1, #8]
	  sConfigOC.OCFastMode = TIM_OCFAST_DISABLE;
 8001dc8:	610b      	str	r3, [r1, #16]
	  if (HAL_TIM_PWM_ConfigChannel(&htim8, &sConfigOC, TIM_CHANNEL_4) != HAL_OK)
 8001dca:	220c      	movs	r2, #12
 8001dcc:	4826      	ldr	r0, [pc, #152]	; (8001e68 <MOTION_DISABLE+0xc8>)
 8001dce:	f7ff fb0f 	bl	80013f0 <HAL_TIM_PWM_ConfigChannel>
 8001dd2:	bb60      	cbnz	r0, 8001e2e <MOTION_DISABLE+0x8e>
	  {
	    _Error_Handler(__FILE__, __LINE__);
	  }

	  if( HAL_TIM_PWM_Stop(&htim2,TIM_CHANNEL_3) != HAL_OK)
 8001dd4:	2108      	movs	r1, #8
 8001dd6:	4823      	ldr	r0, [pc, #140]	; (8001e64 <MOTION_DISABLE+0xc4>)
 8001dd8:	f7ff fba8 	bl	800152c <HAL_TIM_PWM_Stop>
 8001ddc:	bb60      	cbnz	r0, 8001e38 <MOTION_DISABLE+0x98>
	  {
	    _Error_Handler(__FILE__, __LINE__);
	  }
	  if( HAL_TIM_PWM_Stop(&htim8,TIM_CHANNEL_4) != HAL_OK)
 8001dde:	210c      	movs	r1, #12
 8001de0:	4821      	ldr	r0, [pc, #132]	; (8001e68 <MOTION_DISABLE+0xc8>)
 8001de2:	f7ff fba3 	bl	800152c <HAL_TIM_PWM_Stop>
 8001de6:	bb60      	cbnz	r0, 8001e42 <MOTION_DISABLE+0xa2>
	  {
	    _Error_Handler(__FILE__, __LINE__);
	  }

	  htim2.Init.Prescaler = 0;
 8001de8:	481e      	ldr	r0, [pc, #120]	; (8001e64 <MOTION_DISABLE+0xc4>)
 8001dea:	2300      	movs	r3, #0
 8001dec:	6043      	str	r3, [r0, #4]
	  if (HAL_TIM_PWM_Init(&htim2) != HAL_OK)
 8001dee:	f7ff faac 	bl	800134a <HAL_TIM_PWM_Init>
 8001df2:	bb58      	cbnz	r0, 8001e4c <MOTION_DISABLE+0xac>
	  {
		    _Error_Handler(__FILE__, __LINE__);
	  }

	  htim8.Init.Prescaler = 0;
 8001df4:	481c      	ldr	r0, [pc, #112]	; (8001e68 <MOTION_DISABLE+0xc8>)
 8001df6:	2300      	movs	r3, #0
 8001df8:	6043      	str	r3, [r0, #4]
	  if (HAL_TIM_PWM_Init(&htim8) != HAL_OK)
 8001dfa:	f7ff faa6 	bl	800134a <HAL_TIM_PWM_Init>
 8001dfe:	bb50      	cbnz	r0, 8001e56 <MOTION_DISABLE+0xb6>
	  {
		  _Error_Handler(__FILE__, __LINE__);
	  }

	  HAL_GPIO_WritePin(MOTER_EN_GPIO_Port,MOTER_EN_Pin,GPIO_PIN_RESET);
 8001e00:	4c1a      	ldr	r4, [pc, #104]	; (8001e6c <MOTION_DISABLE+0xcc>)
 8001e02:	2200      	movs	r2, #0
 8001e04:	2140      	movs	r1, #64	; 0x40
 8001e06:	4620      	mov	r0, r4
 8001e08:	f7fe fd35 	bl	8000876 <HAL_GPIO_WritePin>
	  HAL_GPIO_WritePin(L_CW_CCW_GPIO_Port,L_CW_CCW_Pin,GPIO_PIN_RESET);
 8001e0c:	2200      	movs	r2, #0
 8001e0e:	2180      	movs	r1, #128	; 0x80
 8001e10:	4620      	mov	r0, r4
 8001e12:	f7fe fd30 	bl	8000876 <HAL_GPIO_WritePin>
	  HAL_GPIO_WritePin(R_CW_CCW_GPIO_Port,R_CW_CCW_Pin,GPIO_PIN_RESET);
 8001e16:	2200      	movs	r2, #0
 8001e18:	f44f 7180 	mov.w	r1, #256	; 0x100
 8001e1c:	4620      	mov	r0, r4
 8001e1e:	f7fe fd2a 	bl	8000876 <HAL_GPIO_WritePin>
 8001e22:	bd10      	pop	{r4, pc}
	    _Error_Handler(__FILE__, __LINE__);
 8001e24:	213a      	movs	r1, #58	; 0x3a
 8001e26:	4812      	ldr	r0, [pc, #72]	; (8001e70 <MOTION_DISABLE+0xd0>)
 8001e28:	f7ff fe3a 	bl	8001aa0 <_Error_Handler>
 8001e2c:	e7c6      	b.n	8001dbc <MOTION_DISABLE+0x1c>
	    _Error_Handler(__FILE__, __LINE__);
 8001e2e:	2143      	movs	r1, #67	; 0x43
 8001e30:	480f      	ldr	r0, [pc, #60]	; (8001e70 <MOTION_DISABLE+0xd0>)
 8001e32:	f7ff fe35 	bl	8001aa0 <_Error_Handler>
 8001e36:	e7cd      	b.n	8001dd4 <MOTION_DISABLE+0x34>
	    _Error_Handler(__FILE__, __LINE__);
 8001e38:	2148      	movs	r1, #72	; 0x48
 8001e3a:	480d      	ldr	r0, [pc, #52]	; (8001e70 <MOTION_DISABLE+0xd0>)
 8001e3c:	f7ff fe30 	bl	8001aa0 <_Error_Handler>
 8001e40:	e7cd      	b.n	8001dde <MOTION_DISABLE+0x3e>
	    _Error_Handler(__FILE__, __LINE__);
 8001e42:	214c      	movs	r1, #76	; 0x4c
 8001e44:	480a      	ldr	r0, [pc, #40]	; (8001e70 <MOTION_DISABLE+0xd0>)
 8001e46:	f7ff fe2b 	bl	8001aa0 <_Error_Handler>
 8001e4a:	e7cd      	b.n	8001de8 <MOTION_DISABLE+0x48>
		    _Error_Handler(__FILE__, __LINE__);
 8001e4c:	2152      	movs	r1, #82	; 0x52
 8001e4e:	4808      	ldr	r0, [pc, #32]	; (8001e70 <MOTION_DISABLE+0xd0>)
 8001e50:	f7ff fe26 	bl	8001aa0 <_Error_Handler>
 8001e54:	e7ce      	b.n	8001df4 <MOTION_DISABLE+0x54>
		  _Error_Handler(__FILE__, __LINE__);
 8001e56:	2158      	movs	r1, #88	; 0x58
 8001e58:	4805      	ldr	r0, [pc, #20]	; (8001e70 <MOTION_DISABLE+0xd0>)
 8001e5a:	f7ff fe21 	bl	8001aa0 <_Error_Handler>
 8001e5e:	e7cf      	b.n	8001e00 <MOTION_DISABLE+0x60>
 8001e60:	200000cc 	.word	0x200000cc
 8001e64:	200001a8 	.word	0x200001a8
 8001e68:	200000e8 	.word	0x200000e8
 8001e6c:	40011000 	.word	0x40011000
 8001e70:	08002e24 	.word	0x08002e24

08001e74 <MOTION_PRES_RESET>:
}

void MOTION_PRES_RESET(void)
{
 8001e74:	b508      	push	{r3, lr}
	htim2.Init.Prescaler = 0;
 8001e76:	480b      	ldr	r0, [pc, #44]	; (8001ea4 <MOTION_PRES_RESET+0x30>)
 8001e78:	2300      	movs	r3, #0
 8001e7a:	6043      	str	r3, [r0, #4]
	if (HAL_TIM_PWM_Init(&htim2) != HAL_OK)
 8001e7c:	f7ff fa65 	bl	800134a <HAL_TIM_PWM_Init>
 8001e80:	b930      	cbnz	r0, 8001e90 <MOTION_PRES_RESET+0x1c>
	{
	  	_Error_Handler(__FILE__, __LINE__);
	}

	htim8.Init.Prescaler = 0;
 8001e82:	4809      	ldr	r0, [pc, #36]	; (8001ea8 <MOTION_PRES_RESET+0x34>)
 8001e84:	2300      	movs	r3, #0
 8001e86:	6043      	str	r3, [r0, #4]
	if (HAL_TIM_PWM_Init(&htim8) != HAL_OK)
 8001e88:	f7ff fa5f 	bl	800134a <HAL_TIM_PWM_Init>
 8001e8c:	b928      	cbnz	r0, 8001e9a <MOTION_PRES_RESET+0x26>
 8001e8e:	bd08      	pop	{r3, pc}
	  	_Error_Handler(__FILE__, __LINE__);
 8001e90:	2165      	movs	r1, #101	; 0x65
 8001e92:	4806      	ldr	r0, [pc, #24]	; (8001eac <MOTION_PRES_RESET+0x38>)
 8001e94:	f7ff fe04 	bl	8001aa0 <_Error_Handler>
 8001e98:	e7f3      	b.n	8001e82 <MOTION_PRES_RESET+0xe>
	{
		_Error_Handler(__FILE__, __LINE__);
 8001e9a:	216b      	movs	r1, #107	; 0x6b
 8001e9c:	4803      	ldr	r0, [pc, #12]	; (8001eac <MOTION_PRES_RESET+0x38>)
 8001e9e:	f7ff fdff 	bl	8001aa0 <_Error_Handler>
	}
}
 8001ea2:	e7f4      	b.n	8001e8e <MOTION_PRES_RESET+0x1a>
 8001ea4:	200001a8 	.word	0x200001a8
 8001ea8:	200000e8 	.word	0x200000e8
 8001eac:	08002e24 	.word	0x08002e24

08001eb0 <MOTION_STRAIGHT>:

void MOTION_STRAIGHT(int left,int right)
{
 8001eb0:	b538      	push	{r3, r4, r5, lr}
 8001eb2:	460c      	mov	r4, r1
	if(left > 0)
 8001eb4:	1e05      	subs	r5, r0, #0
 8001eb6:	dd17      	ble.n	8001ee8 <MOTION_STRAIGHT+0x38>
	{
		HAL_GPIO_WritePin(L_CW_CCW_GPIO_Port,L_CW_CCW_Pin,GPIO_PIN_SET);
 8001eb8:	2201      	movs	r2, #1
 8001eba:	2180      	movs	r1, #128	; 0x80
 8001ebc:	4817      	ldr	r0, [pc, #92]	; (8001f1c <MOTION_STRAIGHT+0x6c>)
 8001ebe:	f7fe fcda 	bl	8000876 <HAL_GPIO_WritePin>
	else
	{
		HAL_GPIO_WritePin(L_CW_CCW_GPIO_Port,L_CW_CCW_Pin,GPIO_PIN_RESET);
		left = -1*left;
	}
	if(right > 0)
 8001ec2:	2c00      	cmp	r4, #0
 8001ec4:	dd17      	ble.n	8001ef6 <MOTION_STRAIGHT+0x46>
	{
		HAL_GPIO_WritePin(R_CW_CCW_GPIO_Port,R_CW_CCW_Pin,GPIO_PIN_RESET);
 8001ec6:	2200      	movs	r2, #0
 8001ec8:	f44f 7180 	mov.w	r1, #256	; 0x100
 8001ecc:	4813      	ldr	r0, [pc, #76]	; (8001f1c <MOTION_STRAIGHT+0x6c>)
 8001ece:	f7fe fcd2 	bl	8000876 <HAL_GPIO_WritePin>
	{
		HAL_GPIO_WritePin(R_CW_CCW_GPIO_Port,R_CW_CCW_Pin,GPIO_PIN_SET);
		right = -1*right;
	}

	htim2.Init.Prescaler = left;
 8001ed2:	4813      	ldr	r0, [pc, #76]	; (8001f20 <MOTION_STRAIGHT+0x70>)
 8001ed4:	6045      	str	r5, [r0, #4]
	if (HAL_TIM_PWM_Init(&htim2) != HAL_OK)
 8001ed6:	f7ff fa38 	bl	800134a <HAL_TIM_PWM_Init>
 8001eda:	b9a0      	cbnz	r0, 8001f06 <MOTION_STRAIGHT+0x56>
	{
		_Error_Handler(__FILE__, __LINE__);
	}

	htim8.Init.Prescaler = right;
 8001edc:	4811      	ldr	r0, [pc, #68]	; (8001f24 <MOTION_STRAIGHT+0x74>)
 8001ede:	6044      	str	r4, [r0, #4]
	if (HAL_TIM_PWM_Init(&htim8) != HAL_OK)
 8001ee0:	f7ff fa33 	bl	800134a <HAL_TIM_PWM_Init>
 8001ee4:	b9a0      	cbnz	r0, 8001f10 <MOTION_STRAIGHT+0x60>
 8001ee6:	bd38      	pop	{r3, r4, r5, pc}
		HAL_GPIO_WritePin(L_CW_CCW_GPIO_Port,L_CW_CCW_Pin,GPIO_PIN_RESET);
 8001ee8:	2200      	movs	r2, #0
 8001eea:	2180      	movs	r1, #128	; 0x80
 8001eec:	480b      	ldr	r0, [pc, #44]	; (8001f1c <MOTION_STRAIGHT+0x6c>)
 8001eee:	f7fe fcc2 	bl	8000876 <HAL_GPIO_WritePin>
		left = -1*left;
 8001ef2:	426d      	negs	r5, r5
 8001ef4:	e7e5      	b.n	8001ec2 <MOTION_STRAIGHT+0x12>
		HAL_GPIO_WritePin(R_CW_CCW_GPIO_Port,R_CW_CCW_Pin,GPIO_PIN_SET);
 8001ef6:	2201      	movs	r2, #1
 8001ef8:	f44f 7180 	mov.w	r1, #256	; 0x100
 8001efc:	4807      	ldr	r0, [pc, #28]	; (8001f1c <MOTION_STRAIGHT+0x6c>)
 8001efe:	f7fe fcba 	bl	8000876 <HAL_GPIO_WritePin>
		right = -1*right;
 8001f02:	4264      	negs	r4, r4
 8001f04:	e7e5      	b.n	8001ed2 <MOTION_STRAIGHT+0x22>
		_Error_Handler(__FILE__, __LINE__);
 8001f06:	2187      	movs	r1, #135	; 0x87
 8001f08:	4807      	ldr	r0, [pc, #28]	; (8001f28 <MOTION_STRAIGHT+0x78>)
 8001f0a:	f7ff fdc9 	bl	8001aa0 <_Error_Handler>
 8001f0e:	e7e5      	b.n	8001edc <MOTION_STRAIGHT+0x2c>
	{
		_Error_Handler(__FILE__, __LINE__);
 8001f10:	218d      	movs	r1, #141	; 0x8d
 8001f12:	4805      	ldr	r0, [pc, #20]	; (8001f28 <MOTION_STRAIGHT+0x78>)
 8001f14:	f7ff fdc4 	bl	8001aa0 <_Error_Handler>
	}
}
 8001f18:	e7e5      	b.n	8001ee6 <MOTION_STRAIGHT+0x36>
 8001f1a:	bf00      	nop
 8001f1c:	40011000 	.word	0x40011000
 8001f20:	200001a8 	.word	0x200001a8
 8001f24:	200000e8 	.word	0x200000e8
 8001f28:	08002e24 	.word	0x08002e24

08001f2c <MOTION_TURN_RIGHT>:

void MOTION_TURN_RIGHT(void)
{
 8001f2c:	b510      	push	{r4, lr}
	MOTION_PRES_RESET();
 8001f2e:	f7ff ffa1 	bl	8001e74 <MOTION_PRES_RESET>

	HAL_GPIO_WritePin(L_CW_CCW_GPIO_Port,L_CW_CCW_Pin,GPIO_PIN_SET);
 8001f32:	4c15      	ldr	r4, [pc, #84]	; (8001f88 <MOTION_TURN_RIGHT+0x5c>)
 8001f34:	2201      	movs	r2, #1
 8001f36:	2180      	movs	r1, #128	; 0x80
 8001f38:	4620      	mov	r0, r4
 8001f3a:	f7fe fc9c 	bl	8000876 <HAL_GPIO_WritePin>
	HAL_GPIO_WritePin(R_CW_CCW_GPIO_Port,R_CW_CCW_Pin,GPIO_PIN_SET);
 8001f3e:	2201      	movs	r2, #1
 8001f40:	f44f 7180 	mov.w	r1, #256	; 0x100
 8001f44:	4620      	mov	r0, r4
 8001f46:	f7fe fc96 	bl	8000876 <HAL_GPIO_WritePin>
	htim2.Init.Prescaler = 8000;
 8001f4a:	4810      	ldr	r0, [pc, #64]	; (8001f8c <MOTION_TURN_RIGHT+0x60>)
 8001f4c:	f44f 53fa 	mov.w	r3, #8000	; 0x1f40
 8001f50:	6043      	str	r3, [r0, #4]
	if (HAL_TIM_PWM_Init(&htim2) != HAL_OK)
 8001f52:	f7ff f9fa 	bl	800134a <HAL_TIM_PWM_Init>
 8001f56:	b968      	cbnz	r0, 8001f74 <MOTION_TURN_RIGHT+0x48>
	{
		_Error_Handler(__FILE__, __LINE__);
	}

	htim8.Init.Prescaler = 8000;
 8001f58:	480d      	ldr	r0, [pc, #52]	; (8001f90 <MOTION_TURN_RIGHT+0x64>)
 8001f5a:	f44f 53fa 	mov.w	r3, #8000	; 0x1f40
 8001f5e:	6043      	str	r3, [r0, #4]
	if (HAL_TIM_PWM_Init(&htim8) != HAL_OK)
 8001f60:	f7ff f9f3 	bl	800134a <HAL_TIM_PWM_Init>
 8001f64:	b958      	cbnz	r0, 8001f7e <MOTION_TURN_RIGHT+0x52>
	{
		_Error_Handler(__FILE__, __LINE__);
	}

	HAL_Delay(268);
 8001f66:	f44f 7086 	mov.w	r0, #268	; 0x10c
 8001f6a:	f7fe f9a3 	bl	80002b4 <HAL_Delay>
	MOTION_PRES_RESET();
 8001f6e:	f7ff ff81 	bl	8001e74 <MOTION_PRES_RESET>
 8001f72:	bd10      	pop	{r4, pc}
		_Error_Handler(__FILE__, __LINE__);
 8001f74:	219a      	movs	r1, #154	; 0x9a
 8001f76:	4807      	ldr	r0, [pc, #28]	; (8001f94 <MOTION_TURN_RIGHT+0x68>)
 8001f78:	f7ff fd92 	bl	8001aa0 <_Error_Handler>
 8001f7c:	e7ec      	b.n	8001f58 <MOTION_TURN_RIGHT+0x2c>
		_Error_Handler(__FILE__, __LINE__);
 8001f7e:	21a0      	movs	r1, #160	; 0xa0
 8001f80:	4804      	ldr	r0, [pc, #16]	; (8001f94 <MOTION_TURN_RIGHT+0x68>)
 8001f82:	f7ff fd8d 	bl	8001aa0 <_Error_Handler>
 8001f86:	e7ee      	b.n	8001f66 <MOTION_TURN_RIGHT+0x3a>
 8001f88:	40011000 	.word	0x40011000
 8001f8c:	200001a8 	.word	0x200001a8
 8001f90:	200000e8 	.word	0x200000e8
 8001f94:	08002e24 	.word	0x08002e24

08001f98 <MOTION_TURN_LEFT>:
}

void MOTION_TURN_LEFT(void)
{
 8001f98:	b510      	push	{r4, lr}
	MOTION_PRES_RESET();
 8001f9a:	f7ff ff6b 	bl	8001e74 <MOTION_PRES_RESET>

	HAL_GPIO_WritePin(L_CW_CCW_GPIO_Port,L_CW_CCW_Pin,GPIO_PIN_RESET);
 8001f9e:	4c15      	ldr	r4, [pc, #84]	; (8001ff4 <MOTION_TURN_LEFT+0x5c>)
 8001fa0:	2200      	movs	r2, #0
 8001fa2:	2180      	movs	r1, #128	; 0x80
 8001fa4:	4620      	mov	r0, r4
 8001fa6:	f7fe fc66 	bl	8000876 <HAL_GPIO_WritePin>
	HAL_GPIO_WritePin(R_CW_CCW_GPIO_Port,R_CW_CCW_Pin,GPIO_PIN_RESET);
 8001faa:	2200      	movs	r2, #0
 8001fac:	f44f 7180 	mov.w	r1, #256	; 0x100
 8001fb0:	4620      	mov	r0, r4
 8001fb2:	f7fe fc60 	bl	8000876 <HAL_GPIO_WritePin>
	htim2.Init.Prescaler = 8000;
 8001fb6:	4810      	ldr	r0, [pc, #64]	; (8001ff8 <MOTION_TURN_LEFT+0x60>)
 8001fb8:	f44f 53fa 	mov.w	r3, #8000	; 0x1f40
 8001fbc:	6043      	str	r3, [r0, #4]
	if (HAL_TIM_PWM_Init(&htim2) != HAL_OK)
 8001fbe:	f7ff f9c4 	bl	800134a <HAL_TIM_PWM_Init>
 8001fc2:	b968      	cbnz	r0, 8001fe0 <MOTION_TURN_LEFT+0x48>
	{
		_Error_Handler(__FILE__, __LINE__);
	}

	htim8.Init.Prescaler = 8000;
 8001fc4:	480d      	ldr	r0, [pc, #52]	; (8001ffc <MOTION_TURN_LEFT+0x64>)
 8001fc6:	f44f 53fa 	mov.w	r3, #8000	; 0x1f40
 8001fca:	6043      	str	r3, [r0, #4]
	if (HAL_TIM_PWM_Init(&htim8) != HAL_OK)
 8001fcc:	f7ff f9bd 	bl	800134a <HAL_TIM_PWM_Init>
 8001fd0:	b958      	cbnz	r0, 8001fea <MOTION_TURN_LEFT+0x52>
	{
		_Error_Handler(__FILE__, __LINE__);
	}

	HAL_Delay(268);
 8001fd2:	f44f 7086 	mov.w	r0, #268	; 0x10c
 8001fd6:	f7fe f96d 	bl	80002b4 <HAL_Delay>
	MOTION_PRES_RESET();
 8001fda:	f7ff ff4b 	bl	8001e74 <MOTION_PRES_RESET>
 8001fde:	bd10      	pop	{r4, pc}
		_Error_Handler(__FILE__, __LINE__);
 8001fe0:	21b0      	movs	r1, #176	; 0xb0
 8001fe2:	4807      	ldr	r0, [pc, #28]	; (8002000 <MOTION_TURN_LEFT+0x68>)
 8001fe4:	f7ff fd5c 	bl	8001aa0 <_Error_Handler>
 8001fe8:	e7ec      	b.n	8001fc4 <MOTION_TURN_LEFT+0x2c>
		_Error_Handler(__FILE__, __LINE__);
 8001fea:	21b6      	movs	r1, #182	; 0xb6
 8001fec:	4804      	ldr	r0, [pc, #16]	; (8002000 <MOTION_TURN_LEFT+0x68>)
 8001fee:	f7ff fd57 	bl	8001aa0 <_Error_Handler>
 8001ff2:	e7ee      	b.n	8001fd2 <MOTION_TURN_LEFT+0x3a>
 8001ff4:	40011000 	.word	0x40011000
 8001ff8:	200001a8 	.word	0x200001a8
 8001ffc:	200000e8 	.word	0x200000e8
 8002000:	08002e24 	.word	0x08002e24

08002004 <MOTION_U_TURN>:
}

void MOTION_U_TURN(void)
{
 8002004:	b510      	push	{r4, lr}
	MOTION_PRES_RESET();
 8002006:	f7ff ff35 	bl	8001e74 <MOTION_PRES_RESET>

	HAL_GPIO_WritePin(L_CW_CCW_GPIO_Port,L_CW_CCW_Pin,GPIO_PIN_SET);
 800200a:	4c15      	ldr	r4, [pc, #84]	; (8002060 <MOTION_U_TURN+0x5c>)
 800200c:	2201      	movs	r2, #1
 800200e:	2180      	movs	r1, #128	; 0x80
 8002010:	4620      	mov	r0, r4
 8002012:	f7fe fc30 	bl	8000876 <HAL_GPIO_WritePin>
	HAL_GPIO_WritePin(R_CW_CCW_GPIO_Port,R_CW_CCW_Pin,GPIO_PIN_SET);
 8002016:	2201      	movs	r2, #1
 8002018:	f44f 7180 	mov.w	r1, #256	; 0x100
 800201c:	4620      	mov	r0, r4
 800201e:	f7fe fc2a 	bl	8000876 <HAL_GPIO_WritePin>
	htim2.Init.Prescaler = 8000;
 8002022:	4810      	ldr	r0, [pc, #64]	; (8002064 <MOTION_U_TURN+0x60>)
 8002024:	f44f 53fa 	mov.w	r3, #8000	; 0x1f40
 8002028:	6043      	str	r3, [r0, #4]
	if (HAL_TIM_PWM_Init(&htim2) != HAL_OK)
 800202a:	f7ff f98e 	bl	800134a <HAL_TIM_PWM_Init>
 800202e:	b968      	cbnz	r0, 800204c <MOTION_U_TURN+0x48>
	{
		_Error_Handler(__FILE__, __LINE__);
	}

	htim8.Init.Prescaler = 8000;
 8002030:	480d      	ldr	r0, [pc, #52]	; (8002068 <MOTION_U_TURN+0x64>)
 8002032:	f44f 53fa 	mov.w	r3, #8000	; 0x1f40
 8002036:	6043      	str	r3, [r0, #4]
	if (HAL_TIM_PWM_Init(&htim8) != HAL_OK)
 8002038:	f7ff f987 	bl	800134a <HAL_TIM_PWM_Init>
 800203c:	b958      	cbnz	r0, 8002056 <MOTION_U_TURN+0x52>
	{
		_Error_Handler(__FILE__, __LINE__);
	}

	HAL_Delay(536);
 800203e:	f44f 7006 	mov.w	r0, #536	; 0x218
 8002042:	f7fe f937 	bl	80002b4 <HAL_Delay>
	MOTION_PRES_RESET();
 8002046:	f7ff ff15 	bl	8001e74 <MOTION_PRES_RESET>
 800204a:	bd10      	pop	{r4, pc}
		_Error_Handler(__FILE__, __LINE__);
 800204c:	21c6      	movs	r1, #198	; 0xc6
 800204e:	4807      	ldr	r0, [pc, #28]	; (800206c <MOTION_U_TURN+0x68>)
 8002050:	f7ff fd26 	bl	8001aa0 <_Error_Handler>
 8002054:	e7ec      	b.n	8002030 <MOTION_U_TURN+0x2c>
		_Error_Handler(__FILE__, __LINE__);
 8002056:	21cc      	movs	r1, #204	; 0xcc
 8002058:	4804      	ldr	r0, [pc, #16]	; (800206c <MOTION_U_TURN+0x68>)
 800205a:	f7ff fd21 	bl	8001aa0 <_Error_Handler>
 800205e:	e7ee      	b.n	800203e <MOTION_U_TURN+0x3a>
 8002060:	40011000 	.word	0x40011000
 8002064:	200001a8 	.word	0x200001a8
 8002068:	200000e8 	.word	0x200000e8
 800206c:	08002e24 	.word	0x08002e24

08002070 <HAL_MspInit>:
/* USER CODE END 0 */
/**
  * Initializes the Global MSP.
  */
void HAL_MspInit(void)
{
 8002070:	b500      	push	{lr}
 8002072:	b083      	sub	sp, #12
  /* USER CODE BEGIN MspInit 0 */

  /* USER CODE END MspInit 0 */

  __HAL_RCC_AFIO_CLK_ENABLE();
 8002074:	4b24      	ldr	r3, [pc, #144]	; (8002108 <HAL_MspInit+0x98>)
 8002076:	699a      	ldr	r2, [r3, #24]
 8002078:	f042 0201 	orr.w	r2, r2, #1
 800207c:	619a      	str	r2, [r3, #24]
 800207e:	699a      	ldr	r2, [r3, #24]
 8002080:	f002 0201 	and.w	r2, r2, #1
 8002084:	9200      	str	r2, [sp, #0]
 8002086:	9a00      	ldr	r2, [sp, #0]
  __HAL_RCC_PWR_CLK_ENABLE();
 8002088:	69da      	ldr	r2, [r3, #28]
 800208a:	f042 5280 	orr.w	r2, r2, #268435456	; 0x10000000
 800208e:	61da      	str	r2, [r3, #28]
 8002090:	69db      	ldr	r3, [r3, #28]
 8002092:	f003 5380 	and.w	r3, r3, #268435456	; 0x10000000
 8002096:	9301      	str	r3, [sp, #4]
 8002098:	9b01      	ldr	r3, [sp, #4]

  HAL_NVIC_SetPriorityGrouping(NVIC_PRIORITYGROUP_4);
 800209a:	2003      	movs	r0, #3
 800209c:	f7fe fa76 	bl	800058c <HAL_NVIC_SetPriorityGrouping>

  /* System interrupt init*/
  /* MemoryManagement_IRQn interrupt configuration */
  HAL_NVIC_SetPriority(MemoryManagement_IRQn, 0, 0);
 80020a0:	2200      	movs	r2, #0
 80020a2:	4611      	mov	r1, r2
 80020a4:	f06f 000b 	mvn.w	r0, #11
 80020a8:	f7fe fa82 	bl	80005b0 <HAL_NVIC_SetPriority>
  /* BusFault_IRQn interrupt configuration */
  HAL_NVIC_SetPriority(BusFault_IRQn, 0, 0);
 80020ac:	2200      	movs	r2, #0
 80020ae:	4611      	mov	r1, r2
 80020b0:	f06f 000a 	mvn.w	r0, #10
 80020b4:	f7fe fa7c 	bl	80005b0 <HAL_NVIC_SetPriority>
  /* UsageFault_IRQn interrupt configuration */
  HAL_NVIC_SetPriority(UsageFault_IRQn, 0, 0);
 80020b8:	2200      	movs	r2, #0
 80020ba:	4611      	mov	r1, r2
 80020bc:	f06f 0009 	mvn.w	r0, #9
 80020c0:	f7fe fa76 	bl	80005b0 <HAL_NVIC_SetPriority>
  /* SVCall_IRQn interrupt configuration */
  HAL_NVIC_SetPriority(SVCall_IRQn, 0, 0);
 80020c4:	2200      	movs	r2, #0
 80020c6:	4611      	mov	r1, r2
 80020c8:	f06f 0004 	mvn.w	r0, #4
 80020cc:	f7fe fa70 	bl	80005b0 <HAL_NVIC_SetPriority>
  /* DebugMonitor_IRQn interrupt configuration */
  HAL_NVIC_SetPriority(DebugMonitor_IRQn, 0, 0);
 80020d0:	2200      	movs	r2, #0
 80020d2:	4611      	mov	r1, r2
 80020d4:	f06f 0003 	mvn.w	r0, #3
 80020d8:	f7fe fa6a 	bl	80005b0 <HAL_NVIC_SetPriority>
  /* PendSV_IRQn interrupt configuration */
  HAL_NVIC_SetPriority(PendSV_IRQn, 0, 0);
 80020dc:	2200      	movs	r2, #0
 80020de:	4611      	mov	r1, r2
 80020e0:	f06f 0001 	mvn.w	r0, #1
 80020e4:	f7fe fa64 	bl	80005b0 <HAL_NVIC_SetPriority>
  /* SysTick_IRQn interrupt configuration */
  HAL_NVIC_SetPriority(SysTick_IRQn, 0, 0);
 80020e8:	2200      	movs	r2, #0
 80020ea:	4611      	mov	r1, r2
 80020ec:	f04f 30ff 	mov.w	r0, #4294967295
 80020f0:	f7fe fa5e 	bl	80005b0 <HAL_NVIC_SetPriority>

    /**NOJTAG: JTAG-DP Disabled and SW-DP Enabled 
    */
  __HAL_AFIO_REMAP_SWJ_NOJTAG();
 80020f4:	4a05      	ldr	r2, [pc, #20]	; (800210c <HAL_MspInit+0x9c>)
 80020f6:	6853      	ldr	r3, [r2, #4]
 80020f8:	f023 63e0 	bic.w	r3, r3, #117440512	; 0x7000000
 80020fc:	f043 7300 	orr.w	r3, r3, #33554432	; 0x2000000
 8002100:	6053      	str	r3, [r2, #4]

  /* USER CODE BEGIN MspInit 1 */

  /* USER CODE END MspInit 1 */
}
 8002102:	b003      	add	sp, #12
 8002104:	f85d fb04 	ldr.w	pc, [sp], #4
 8002108:	40021000 	.word	0x40021000
 800210c:	40010000 	.word	0x40010000

08002110 <NMI_Handler>:

/**
* @brief This function handles Non maskable interrupt.
*/
void NMI_Handler(void)
{
 8002110:	4770      	bx	lr

08002112 <HardFault_Handler>:

/**
* @brief This function handles Hard fault interrupt.
*/
void HardFault_Handler(void)
{
 8002112:	e7fe      	b.n	8002112 <HardFault_Handler>

08002114 <MemManage_Handler>:

/**
* @brief This function handles Memory management fault.
*/
void MemManage_Handler(void)
{
 8002114:	e7fe      	b.n	8002114 <MemManage_Handler>

08002116 <BusFault_Handler>:

/**
* @brief This function handles Prefetch fault, memory access fault.
*/
void BusFault_Handler(void)
{
 8002116:	e7fe      	b.n	8002116 <BusFault_Handler>

08002118 <UsageFault_Handler>:

/**
* @brief This function handles Undefined instruction or illegal state.
*/
void UsageFault_Handler(void)
{
 8002118:	e7fe      	b.n	8002118 <UsageFault_Handler>

0800211a <SVC_Handler>:

/**
* @brief This function handles System service call via SWI instruction.
*/
void SVC_Handler(void)
{
 800211a:	4770      	bx	lr

0800211c <DebugMon_Handler>:

/**
* @brief This function handles Debug monitor.
*/
void DebugMon_Handler(void)
{
 800211c:	4770      	bx	lr

0800211e <PendSV_Handler>:

/**
* @brief This function handles Pendable request for system service.
*/
void PendSV_Handler(void)
{
 800211e:	4770      	bx	lr

08002120 <SysTick_Handler>:

/**
* @brief This function handles System tick timer.
*/
void SysTick_Handler(void)
{
 8002120:	b508      	push	{r3, lr}
  /* USER CODE BEGIN SysTick_IRQn 0 */

  /* USER CODE END SysTick_IRQn 0 */
  HAL_IncTick();
 8002122:	f7fe f8b5 	bl	8000290 <HAL_IncTick>
  HAL_SYSTICK_IRQHandler();
 8002126:	f7fe fa9c 	bl	8000662 <HAL_SYSTICK_IRQHandler>
 800212a:	bd08      	pop	{r3, pc}

0800212c <SystemInit>:
  */
void SystemInit (void)
{
  /* Reset the RCC clock configuration to the default reset state(for debug purpose) */
  /* Set HSION bit */
  RCC->CR |= 0x00000001U;
 800212c:	4b0f      	ldr	r3, [pc, #60]	; (800216c <SystemInit+0x40>)
 800212e:	681a      	ldr	r2, [r3, #0]
 8002130:	f042 0201 	orr.w	r2, r2, #1
 8002134:	601a      	str	r2, [r3, #0]

  /* Reset SW, HPRE, PPRE1, PPRE2, ADCPRE and MCO bits */
#if !defined(STM32F105xC) && !defined(STM32F107xC)
  RCC->CFGR &= 0xF8FF0000U;
 8002136:	6859      	ldr	r1, [r3, #4]
 8002138:	4a0d      	ldr	r2, [pc, #52]	; (8002170 <SystemInit+0x44>)
 800213a:	400a      	ands	r2, r1
 800213c:	605a      	str	r2, [r3, #4]
#else
  RCC->CFGR &= 0xF0FF0000U;
#endif /* STM32F105xC */   
  
  /* Reset HSEON, CSSON and PLLON bits */
  RCC->CR &= 0xFEF6FFFFU;
 800213e:	681a      	ldr	r2, [r3, #0]
 8002140:	f022 7284 	bic.w	r2, r2, #17301504	; 0x1080000
 8002144:	f422 3280 	bic.w	r2, r2, #65536	; 0x10000
 8002148:	601a      	str	r2, [r3, #0]

  /* Reset HSEBYP bit */
  RCC->CR &= 0xFFFBFFFFU;
 800214a:	681a      	ldr	r2, [r3, #0]
 800214c:	f422 2280 	bic.w	r2, r2, #262144	; 0x40000
 8002150:	601a      	str	r2, [r3, #0]

  /* Reset PLLSRC, PLLXTPRE, PLLMUL and USBPRE/OTGFSPRE bits */
  RCC->CFGR &= 0xFF80FFFFU;
 8002152:	685a      	ldr	r2, [r3, #4]
 8002154:	f422 02fe 	bic.w	r2, r2, #8323072	; 0x7f0000
 8002158:	605a      	str	r2, [r3, #4]

  /* Reset CFGR2 register */
  RCC->CFGR2 = 0x00000000U;      
#else
  /* Disable all interrupts and clear pending bits  */
  RCC->CIR = 0x009F0000U;
 800215a:	f44f 021f 	mov.w	r2, #10420224	; 0x9f0000
 800215e:	609a      	str	r2, [r3, #8]
#endif 

#ifdef VECT_TAB_SRAM
  SCB->VTOR = SRAM_BASE | VECT_TAB_OFFSET; /* Vector Table Relocation in Internal SRAM. */
#else
  SCB->VTOR = FLASH_BASE | VECT_TAB_OFFSET; /* Vector Table Relocation in Internal FLASH. */
 8002160:	f04f 6200 	mov.w	r2, #134217728	; 0x8000000
 8002164:	4b03      	ldr	r3, [pc, #12]	; (8002174 <SystemInit+0x48>)
 8002166:	609a      	str	r2, [r3, #8]
 8002168:	4770      	bx	lr
 800216a:	bf00      	nop
 800216c:	40021000 	.word	0x40021000
 8002170:	f8ff0000 	.word	0xf8ff0000
 8002174:	e000ed00 	.word	0xe000ed00

08002178 <MX_TIM4_Init>:
  HAL_TIM_MspPostInit(&htim2);

}
/* TIM4 init function */
void MX_TIM4_Init(void)
{
 8002178:	b500      	push	{lr}
 800217a:	b087      	sub	sp, #28
  TIM_ClockConfigTypeDef sClockSourceConfig;
  TIM_MasterConfigTypeDef sMasterConfig;

  htim4.Instance = TIM4;
 800217c:	4817      	ldr	r0, [pc, #92]	; (80021dc <MX_TIM4_Init+0x64>)
 800217e:	4b18      	ldr	r3, [pc, #96]	; (80021e0 <MX_TIM4_Init+0x68>)
 8002180:	6003      	str	r3, [r0, #0]
  htim4.Init.Prescaler = 0;
 8002182:	2300      	movs	r3, #0
 8002184:	6043      	str	r3, [r0, #4]
  htim4.Init.CounterMode = TIM_COUNTERMODE_UP;
 8002186:	6083      	str	r3, [r0, #8]
  htim4.Init.Period = 0;
 8002188:	60c3      	str	r3, [r0, #12]
  htim4.Init.ClockDivision = TIM_CLOCKDIVISION_DIV1;
 800218a:	6103      	str	r3, [r0, #16]
  htim4.Init.AutoReloadPreload = TIM_AUTORELOAD_PRELOAD_DISABLE;
 800218c:	6183      	str	r3, [r0, #24]
  if (HAL_TIM_Base_Init(&htim4) != HAL_OK)
 800218e:	f7ff f8c3 	bl	8001318 <HAL_TIM_Base_Init>
 8002192:	b998      	cbnz	r0, 80021bc <MX_TIM4_Init+0x44>
  {
    _Error_Handler(__FILE__, __LINE__);
  }

  sClockSourceConfig.ClockSource = TIM_CLOCKSOURCE_INTERNAL;
 8002194:	a906      	add	r1, sp, #24
 8002196:	f44f 5380 	mov.w	r3, #4096	; 0x1000
 800219a:	f841 3d10 	str.w	r3, [r1, #-16]!
  if (HAL_TIM_ConfigClockSource(&htim4, &sClockSourceConfig) != HAL_OK)
 800219e:	480f      	ldr	r0, [pc, #60]	; (80021dc <MX_TIM4_Init+0x64>)
 80021a0:	f7fe ffe8 	bl	8001174 <HAL_TIM_ConfigClockSource>
 80021a4:	b978      	cbnz	r0, 80021c6 <MX_TIM4_Init+0x4e>
  {
    _Error_Handler(__FILE__, __LINE__);
  }

  sMasterConfig.MasterOutputTrigger = TIM_TRGO_RESET;
 80021a6:	2300      	movs	r3, #0
 80021a8:	9300      	str	r3, [sp, #0]
  sMasterConfig.MasterSlaveMode = TIM_MASTERSLAVEMODE_DISABLE;
 80021aa:	9301      	str	r3, [sp, #4]
  if (HAL_TIMEx_MasterConfigSynchronization(&htim4, &sMasterConfig) != HAL_OK)
 80021ac:	4669      	mov	r1, sp
 80021ae:	480b      	ldr	r0, [pc, #44]	; (80021dc <MX_TIM4_Init+0x64>)
 80021b0:	f7ff fa20 	bl	80015f4 <HAL_TIMEx_MasterConfigSynchronization>
 80021b4:	b960      	cbnz	r0, 80021d0 <MX_TIM4_Init+0x58>
  {
    _Error_Handler(__FILE__, __LINE__);
  }

}
 80021b6:	b007      	add	sp, #28
 80021b8:	f85d fb04 	ldr.w	pc, [sp], #4
    _Error_Handler(__FILE__, __LINE__);
 80021bc:	2166      	movs	r1, #102	; 0x66
 80021be:	4809      	ldr	r0, [pc, #36]	; (80021e4 <MX_TIM4_Init+0x6c>)
 80021c0:	f7ff fc6e 	bl	8001aa0 <_Error_Handler>
 80021c4:	e7e6      	b.n	8002194 <MX_TIM4_Init+0x1c>
    _Error_Handler(__FILE__, __LINE__);
 80021c6:	216c      	movs	r1, #108	; 0x6c
 80021c8:	4806      	ldr	r0, [pc, #24]	; (80021e4 <MX_TIM4_Init+0x6c>)
 80021ca:	f7ff fc69 	bl	8001aa0 <_Error_Handler>
 80021ce:	e7ea      	b.n	80021a6 <MX_TIM4_Init+0x2e>
    _Error_Handler(__FILE__, __LINE__);
 80021d0:	2173      	movs	r1, #115	; 0x73
 80021d2:	4804      	ldr	r0, [pc, #16]	; (80021e4 <MX_TIM4_Init+0x6c>)
 80021d4:	f7ff fc64 	bl	8001aa0 <_Error_Handler>
}
 80021d8:	e7ed      	b.n	80021b6 <MX_TIM4_Init+0x3e>
 80021da:	bf00      	nop
 80021dc:	20000128 	.word	0x20000128
 80021e0:	40000800 	.word	0x40000800
 80021e4:	08002e34 	.word	0x08002e34

080021e8 <HAL_TIM_PWM_MspInit>:
  HAL_TIM_MspPostInit(&htim8);

}

void HAL_TIM_PWM_MspInit(TIM_HandleTypeDef* tim_pwmHandle)
{
 80021e8:	b084      	sub	sp, #16

  if(tim_pwmHandle->Instance==TIM2)
 80021ea:	6803      	ldr	r3, [r0, #0]
 80021ec:	f1b3 4f80 	cmp.w	r3, #1073741824	; 0x40000000
 80021f0:	d007      	beq.n	8002202 <HAL_TIM_PWM_MspInit+0x1a>
    __HAL_RCC_TIM2_CLK_ENABLE();
  /* USER CODE BEGIN TIM2_MspInit 1 */

  /* USER CODE END TIM2_MspInit 1 */
  }
  else if(tim_pwmHandle->Instance==TIM5)
 80021f2:	4a15      	ldr	r2, [pc, #84]	; (8002248 <HAL_TIM_PWM_MspInit+0x60>)
 80021f4:	4293      	cmp	r3, r2
 80021f6:	d010      	beq.n	800221a <HAL_TIM_PWM_MspInit+0x32>
    __HAL_RCC_TIM5_CLK_ENABLE();
  /* USER CODE BEGIN TIM5_MspInit 1 */

  /* USER CODE END TIM5_MspInit 1 */
  }
  else if(tim_pwmHandle->Instance==TIM8)
 80021f8:	4a14      	ldr	r2, [pc, #80]	; (800224c <HAL_TIM_PWM_MspInit+0x64>)
 80021fa:	4293      	cmp	r3, r2
 80021fc:	d018      	beq.n	8002230 <HAL_TIM_PWM_MspInit+0x48>
    __HAL_RCC_TIM8_CLK_ENABLE();
  /* USER CODE BEGIN TIM8_MspInit 1 */

  /* USER CODE END TIM8_MspInit 1 */
  }
}
 80021fe:	b004      	add	sp, #16
 8002200:	4770      	bx	lr
    __HAL_RCC_TIM2_CLK_ENABLE();
 8002202:	f503 3304 	add.w	r3, r3, #135168	; 0x21000
 8002206:	69da      	ldr	r2, [r3, #28]
 8002208:	f042 0201 	orr.w	r2, r2, #1
 800220c:	61da      	str	r2, [r3, #28]
 800220e:	69db      	ldr	r3, [r3, #28]
 8002210:	f003 0301 	and.w	r3, r3, #1
 8002214:	9301      	str	r3, [sp, #4]
 8002216:	9b01      	ldr	r3, [sp, #4]
 8002218:	e7f1      	b.n	80021fe <HAL_TIM_PWM_MspInit+0x16>
    __HAL_RCC_TIM5_CLK_ENABLE();
 800221a:	4b0d      	ldr	r3, [pc, #52]	; (8002250 <HAL_TIM_PWM_MspInit+0x68>)
 800221c:	69da      	ldr	r2, [r3, #28]
 800221e:	f042 0208 	orr.w	r2, r2, #8
 8002222:	61da      	str	r2, [r3, #28]
 8002224:	69db      	ldr	r3, [r3, #28]
 8002226:	f003 0308 	and.w	r3, r3, #8
 800222a:	9302      	str	r3, [sp, #8]
 800222c:	9b02      	ldr	r3, [sp, #8]
 800222e:	e7e6      	b.n	80021fe <HAL_TIM_PWM_MspInit+0x16>
    __HAL_RCC_TIM8_CLK_ENABLE();
 8002230:	4b07      	ldr	r3, [pc, #28]	; (8002250 <HAL_TIM_PWM_MspInit+0x68>)
 8002232:	699a      	ldr	r2, [r3, #24]
 8002234:	f442 5200 	orr.w	r2, r2, #8192	; 0x2000
 8002238:	619a      	str	r2, [r3, #24]
 800223a:	699b      	ldr	r3, [r3, #24]
 800223c:	f403 5300 	and.w	r3, r3, #8192	; 0x2000
 8002240:	9303      	str	r3, [sp, #12]
 8002242:	9b03      	ldr	r3, [sp, #12]
}
 8002244:	e7db      	b.n	80021fe <HAL_TIM_PWM_MspInit+0x16>
 8002246:	bf00      	nop
 8002248:	40000c00 	.word	0x40000c00
 800224c:	40013400 	.word	0x40013400
 8002250:	40021000 	.word	0x40021000

08002254 <HAL_TIM_Base_MspInit>:

void HAL_TIM_Base_MspInit(TIM_HandleTypeDef* tim_baseHandle)
{

  if(tim_baseHandle->Instance==TIM4)
 8002254:	6802      	ldr	r2, [r0, #0]
 8002256:	4b09      	ldr	r3, [pc, #36]	; (800227c <HAL_TIM_Base_MspInit+0x28>)
 8002258:	429a      	cmp	r2, r3
 800225a:	d000      	beq.n	800225e <HAL_TIM_Base_MspInit+0xa>
    __HAL_RCC_TIM4_CLK_ENABLE();
  /* USER CODE BEGIN TIM4_MspInit 1 */

  /* USER CODE END TIM4_MspInit 1 */
  }
}
 800225c:	4770      	bx	lr
{
 800225e:	b082      	sub	sp, #8
    __HAL_RCC_TIM4_CLK_ENABLE();
 8002260:	f503 3302 	add.w	r3, r3, #133120	; 0x20800
 8002264:	69da      	ldr	r2, [r3, #28]
 8002266:	f042 0204 	orr.w	r2, r2, #4
 800226a:	61da      	str	r2, [r3, #28]
 800226c:	69db      	ldr	r3, [r3, #28]
 800226e:	f003 0304 	and.w	r3, r3, #4
 8002272:	9301      	str	r3, [sp, #4]
 8002274:	9b01      	ldr	r3, [sp, #4]
}
 8002276:	b002      	add	sp, #8
 8002278:	e7f0      	b.n	800225c <HAL_TIM_Base_MspInit+0x8>
 800227a:	bf00      	nop
 800227c:	40000800 	.word	0x40000800

08002280 <HAL_TIM_MspPostInit>:
void HAL_TIM_MspPostInit(TIM_HandleTypeDef* timHandle)
{
 8002280:	b500      	push	{lr}
 8002282:	b085      	sub	sp, #20

  GPIO_InitTypeDef GPIO_InitStruct;
  if(timHandle->Instance==TIM2)
 8002284:	6803      	ldr	r3, [r0, #0]
 8002286:	f1b3 4f80 	cmp.w	r3, #1073741824	; 0x40000000
 800228a:	d008      	beq.n	800229e <HAL_TIM_MspPostInit+0x1e>

  /* USER CODE BEGIN TIM2_MspPostInit 1 */

  /* USER CODE END TIM2_MspPostInit 1 */
  }
  else if(timHandle->Instance==TIM5)
 800228c:	4a18      	ldr	r2, [pc, #96]	; (80022f0 <HAL_TIM_MspPostInit+0x70>)
 800228e:	4293      	cmp	r3, r2
 8002290:	d019      	beq.n	80022c6 <HAL_TIM_MspPostInit+0x46>

  /* USER CODE BEGIN TIM5_MspPostInit 1 */

  /* USER CODE END TIM5_MspPostInit 1 */
  }
  else if(timHandle->Instance==TIM8)
 8002292:	4a18      	ldr	r2, [pc, #96]	; (80022f4 <HAL_TIM_MspPostInit+0x74>)
 8002294:	4293      	cmp	r3, r2
 8002296:	d020      	beq.n	80022da <HAL_TIM_MspPostInit+0x5a>
  /* USER CODE BEGIN TIM8_MspPostInit 1 */

  /* USER CODE END TIM8_MspPostInit 1 */
  }

}
 8002298:	b005      	add	sp, #20
 800229a:	f85d fb04 	ldr.w	pc, [sp], #4
    GPIO_InitStruct.Pin = GPIO_PIN_10;
 800229e:	f44f 6380 	mov.w	r3, #1024	; 0x400
 80022a2:	9300      	str	r3, [sp, #0]
    GPIO_InitStruct.Mode = GPIO_MODE_AF_PP;
 80022a4:	2302      	movs	r3, #2
 80022a6:	9301      	str	r3, [sp, #4]
    GPIO_InitStruct.Speed = GPIO_SPEED_FREQ_LOW;
 80022a8:	9303      	str	r3, [sp, #12]
    HAL_GPIO_Init(GPIOB, &GPIO_InitStruct);
 80022aa:	4669      	mov	r1, sp
 80022ac:	4812      	ldr	r0, [pc, #72]	; (80022f8 <HAL_TIM_MspPostInit+0x78>)
 80022ae:	f7fe f9dd 	bl	800066c <HAL_GPIO_Init>
    __HAL_AFIO_REMAP_TIM2_PARTIAL_2();
 80022b2:	4a12      	ldr	r2, [pc, #72]	; (80022fc <HAL_TIM_MspPostInit+0x7c>)
 80022b4:	6853      	ldr	r3, [r2, #4]
 80022b6:	f423 7340 	bic.w	r3, r3, #768	; 0x300
 80022ba:	f043 63e0 	orr.w	r3, r3, #117440512	; 0x7000000
 80022be:	f443 7300 	orr.w	r3, r3, #512	; 0x200
 80022c2:	6053      	str	r3, [r2, #4]
 80022c4:	e7e8      	b.n	8002298 <HAL_TIM_MspPostInit+0x18>
    GPIO_InitStruct.Pin = GPIO_PIN_3;
 80022c6:	2308      	movs	r3, #8
 80022c8:	9300      	str	r3, [sp, #0]
    GPIO_InitStruct.Mode = GPIO_MODE_AF_PP;
 80022ca:	2302      	movs	r3, #2
 80022cc:	9301      	str	r3, [sp, #4]
    GPIO_InitStruct.Speed = GPIO_SPEED_FREQ_LOW;
 80022ce:	9303      	str	r3, [sp, #12]
    HAL_GPIO_Init(GPIOA, &GPIO_InitStruct);
 80022d0:	4669      	mov	r1, sp
 80022d2:	480b      	ldr	r0, [pc, #44]	; (8002300 <HAL_TIM_MspPostInit+0x80>)
 80022d4:	f7fe f9ca 	bl	800066c <HAL_GPIO_Init>
 80022d8:	e7de      	b.n	8002298 <HAL_TIM_MspPostInit+0x18>
    GPIO_InitStruct.Pin = GPIO_PIN_9;
 80022da:	f44f 7300 	mov.w	r3, #512	; 0x200
 80022de:	9300      	str	r3, [sp, #0]
    GPIO_InitStruct.Mode = GPIO_MODE_AF_PP;
 80022e0:	2302      	movs	r3, #2
 80022e2:	9301      	str	r3, [sp, #4]
    GPIO_InitStruct.Speed = GPIO_SPEED_FREQ_LOW;
 80022e4:	9303      	str	r3, [sp, #12]
    HAL_GPIO_Init(GPIOC, &GPIO_InitStruct);
 80022e6:	4669      	mov	r1, sp
 80022e8:	4806      	ldr	r0, [pc, #24]	; (8002304 <HAL_TIM_MspPostInit+0x84>)
 80022ea:	f7fe f9bf 	bl	800066c <HAL_GPIO_Init>
}
 80022ee:	e7d3      	b.n	8002298 <HAL_TIM_MspPostInit+0x18>
 80022f0:	40000c00 	.word	0x40000c00
 80022f4:	40013400 	.word	0x40013400
 80022f8:	40010c00 	.word	0x40010c00
 80022fc:	40010000 	.word	0x40010000
 8002300:	40010800 	.word	0x40010800
 8002304:	40011000 	.word	0x40011000

08002308 <MX_TIM2_Init>:
{
 8002308:	b500      	push	{lr}
 800230a:	b08b      	sub	sp, #44	; 0x2c
  htim2.Instance = TIM2;
 800230c:	481b      	ldr	r0, [pc, #108]	; (800237c <MX_TIM2_Init+0x74>)
 800230e:	f04f 4380 	mov.w	r3, #1073741824	; 0x40000000
 8002312:	6003      	str	r3, [r0, #0]
  htim2.Init.Prescaler = 0;
 8002314:	2300      	movs	r3, #0
 8002316:	6043      	str	r3, [r0, #4]
  htim2.Init.CounterMode = TIM_COUNTERMODE_UP;
 8002318:	6083      	str	r3, [r0, #8]
  htim2.Init.Period = 12;
 800231a:	220c      	movs	r2, #12
 800231c:	60c2      	str	r2, [r0, #12]
  htim2.Init.ClockDivision = TIM_CLOCKDIVISION_DIV1;
 800231e:	6103      	str	r3, [r0, #16]
  htim2.Init.AutoReloadPreload = TIM_AUTORELOAD_PRELOAD_DISABLE;
 8002320:	6183      	str	r3, [r0, #24]
  if (HAL_TIM_PWM_Init(&htim2) != HAL_OK)
 8002322:	f7ff f812 	bl	800134a <HAL_TIM_PWM_Init>
 8002326:	b9c8      	cbnz	r0, 800235c <MX_TIM2_Init+0x54>
  sMasterConfig.MasterOutputTrigger = TIM_TRGO_RESET;
 8002328:	2300      	movs	r3, #0
 800232a:	9308      	str	r3, [sp, #32]
  sMasterConfig.MasterSlaveMode = TIM_MASTERSLAVEMODE_DISABLE;
 800232c:	9309      	str	r3, [sp, #36]	; 0x24
  if (HAL_TIMEx_MasterConfigSynchronization(&htim2, &sMasterConfig) != HAL_OK)
 800232e:	a908      	add	r1, sp, #32
 8002330:	4812      	ldr	r0, [pc, #72]	; (800237c <MX_TIM2_Init+0x74>)
 8002332:	f7ff f95f 	bl	80015f4 <HAL_TIMEx_MasterConfigSynchronization>
 8002336:	b9b0      	cbnz	r0, 8002366 <MX_TIM2_Init+0x5e>
  sConfigOC.OCMode = TIM_OCMODE_PWM1;
 8002338:	2360      	movs	r3, #96	; 0x60
 800233a:	9301      	str	r3, [sp, #4]
  sConfigOC.Pulse = 0;
 800233c:	2300      	movs	r3, #0
 800233e:	9302      	str	r3, [sp, #8]
  sConfigOC.OCPolarity = TIM_OCPOLARITY_HIGH;
 8002340:	9303      	str	r3, [sp, #12]
  sConfigOC.OCFastMode = TIM_OCFAST_DISABLE;
 8002342:	9305      	str	r3, [sp, #20]
  if (HAL_TIM_PWM_ConfigChannel(&htim2, &sConfigOC, TIM_CHANNEL_3) != HAL_OK)
 8002344:	2208      	movs	r2, #8
 8002346:	a901      	add	r1, sp, #4
 8002348:	480c      	ldr	r0, [pc, #48]	; (800237c <MX_TIM2_Init+0x74>)
 800234a:	f7ff f851 	bl	80013f0 <HAL_TIM_PWM_ConfigChannel>
 800234e:	b978      	cbnz	r0, 8002370 <MX_TIM2_Init+0x68>
  HAL_TIM_MspPostInit(&htim2);
 8002350:	480a      	ldr	r0, [pc, #40]	; (800237c <MX_TIM2_Init+0x74>)
 8002352:	f7ff ff95 	bl	8002280 <HAL_TIM_MspPostInit>
}
 8002356:	b00b      	add	sp, #44	; 0x2c
 8002358:	f85d fb04 	ldr.w	pc, [sp], #4
    _Error_Handler(__FILE__, __LINE__);
 800235c:	2142      	movs	r1, #66	; 0x42
 800235e:	4808      	ldr	r0, [pc, #32]	; (8002380 <MX_TIM2_Init+0x78>)
 8002360:	f7ff fb9e 	bl	8001aa0 <_Error_Handler>
 8002364:	e7e0      	b.n	8002328 <MX_TIM2_Init+0x20>
    _Error_Handler(__FILE__, __LINE__);
 8002366:	2149      	movs	r1, #73	; 0x49
 8002368:	4805      	ldr	r0, [pc, #20]	; (8002380 <MX_TIM2_Init+0x78>)
 800236a:	f7ff fb99 	bl	8001aa0 <_Error_Handler>
 800236e:	e7e3      	b.n	8002338 <MX_TIM2_Init+0x30>
    _Error_Handler(__FILE__, __LINE__);
 8002370:	2152      	movs	r1, #82	; 0x52
 8002372:	4803      	ldr	r0, [pc, #12]	; (8002380 <MX_TIM2_Init+0x78>)
 8002374:	f7ff fb94 	bl	8001aa0 <_Error_Handler>
 8002378:	e7ea      	b.n	8002350 <MX_TIM2_Init+0x48>
 800237a:	bf00      	nop
 800237c:	200001a8 	.word	0x200001a8
 8002380:	08002e34 	.word	0x08002e34

08002384 <MX_TIM5_Init>:
{
 8002384:	b500      	push	{lr}
 8002386:	b08b      	sub	sp, #44	; 0x2c
  htim5.Instance = TIM5;
 8002388:	481a      	ldr	r0, [pc, #104]	; (80023f4 <MX_TIM5_Init+0x70>)
 800238a:	4b1b      	ldr	r3, [pc, #108]	; (80023f8 <MX_TIM5_Init+0x74>)
 800238c:	6003      	str	r3, [r0, #0]
  htim5.Init.Prescaler = 0;
 800238e:	2300      	movs	r3, #0
 8002390:	6043      	str	r3, [r0, #4]
  htim5.Init.CounterMode = TIM_COUNTERMODE_UP;
 8002392:	6083      	str	r3, [r0, #8]
  htim5.Init.Period = 0;
 8002394:	60c3      	str	r3, [r0, #12]
  htim5.Init.ClockDivision = TIM_CLOCKDIVISION_DIV1;
 8002396:	6103      	str	r3, [r0, #16]
  htim5.Init.AutoReloadPreload = TIM_AUTORELOAD_PRELOAD_DISABLE;
 8002398:	6183      	str	r3, [r0, #24]
  if (HAL_TIM_PWM_Init(&htim5) != HAL_OK)
 800239a:	f7fe ffd6 	bl	800134a <HAL_TIM_PWM_Init>
 800239e:	b9c8      	cbnz	r0, 80023d4 <MX_TIM5_Init+0x50>
  sMasterConfig.MasterOutputTrigger = TIM_TRGO_RESET;
 80023a0:	2300      	movs	r3, #0
 80023a2:	9308      	str	r3, [sp, #32]
  sMasterConfig.MasterSlaveMode = TIM_MASTERSLAVEMODE_DISABLE;
 80023a4:	9309      	str	r3, [sp, #36]	; 0x24
  if (HAL_TIMEx_MasterConfigSynchronization(&htim5, &sMasterConfig) != HAL_OK)
 80023a6:	a908      	add	r1, sp, #32
 80023a8:	4812      	ldr	r0, [pc, #72]	; (80023f4 <MX_TIM5_Init+0x70>)
 80023aa:	f7ff f923 	bl	80015f4 <HAL_TIMEx_MasterConfigSynchronization>
 80023ae:	b9b0      	cbnz	r0, 80023de <MX_TIM5_Init+0x5a>
  sConfigOC.OCMode = TIM_OCMODE_PWM1;
 80023b0:	2360      	movs	r3, #96	; 0x60
 80023b2:	9301      	str	r3, [sp, #4]
  sConfigOC.Pulse = 0;
 80023b4:	2300      	movs	r3, #0
 80023b6:	9302      	str	r3, [sp, #8]
  sConfigOC.OCPolarity = TIM_OCPOLARITY_HIGH;
 80023b8:	9303      	str	r3, [sp, #12]
  sConfigOC.OCFastMode = TIM_OCFAST_DISABLE;
 80023ba:	9305      	str	r3, [sp, #20]
  if (HAL_TIM_PWM_ConfigChannel(&htim5, &sConfigOC, TIM_CHANNEL_4) != HAL_OK)
 80023bc:	220c      	movs	r2, #12
 80023be:	a901      	add	r1, sp, #4
 80023c0:	480c      	ldr	r0, [pc, #48]	; (80023f4 <MX_TIM5_Init+0x70>)
 80023c2:	f7ff f815 	bl	80013f0 <HAL_TIM_PWM_ConfigChannel>
 80023c6:	b978      	cbnz	r0, 80023e8 <MX_TIM5_Init+0x64>
  HAL_TIM_MspPostInit(&htim5);
 80023c8:	480a      	ldr	r0, [pc, #40]	; (80023f4 <MX_TIM5_Init+0x70>)
 80023ca:	f7ff ff59 	bl	8002280 <HAL_TIM_MspPostInit>
}
 80023ce:	b00b      	add	sp, #44	; 0x2c
 80023d0:	f85d fb04 	ldr.w	pc, [sp], #4
    _Error_Handler(__FILE__, __LINE__);
 80023d4:	2185      	movs	r1, #133	; 0x85
 80023d6:	4809      	ldr	r0, [pc, #36]	; (80023fc <MX_TIM5_Init+0x78>)
 80023d8:	f7ff fb62 	bl	8001aa0 <_Error_Handler>
 80023dc:	e7e0      	b.n	80023a0 <MX_TIM5_Init+0x1c>
    _Error_Handler(__FILE__, __LINE__);
 80023de:	218c      	movs	r1, #140	; 0x8c
 80023e0:	4806      	ldr	r0, [pc, #24]	; (80023fc <MX_TIM5_Init+0x78>)
 80023e2:	f7ff fb5d 	bl	8001aa0 <_Error_Handler>
 80023e6:	e7e3      	b.n	80023b0 <MX_TIM5_Init+0x2c>
    _Error_Handler(__FILE__, __LINE__);
 80023e8:	2195      	movs	r1, #149	; 0x95
 80023ea:	4804      	ldr	r0, [pc, #16]	; (80023fc <MX_TIM5_Init+0x78>)
 80023ec:	f7ff fb58 	bl	8001aa0 <_Error_Handler>
 80023f0:	e7ea      	b.n	80023c8 <MX_TIM5_Init+0x44>
 80023f2:	bf00      	nop
 80023f4:	20000168 	.word	0x20000168
 80023f8:	40000c00 	.word	0x40000c00
 80023fc:	08002e34 	.word	0x08002e34

08002400 <MX_TIM8_Init>:
{
 8002400:	b500      	push	{lr}
 8002402:	b091      	sub	sp, #68	; 0x44
  htim8.Instance = TIM8;
 8002404:	4826      	ldr	r0, [pc, #152]	; (80024a0 <MX_TIM8_Init+0xa0>)
 8002406:	4b27      	ldr	r3, [pc, #156]	; (80024a4 <MX_TIM8_Init+0xa4>)
 8002408:	6003      	str	r3, [r0, #0]
  htim8.Init.Prescaler = 0;
 800240a:	2300      	movs	r3, #0
 800240c:	6043      	str	r3, [r0, #4]
  htim8.Init.CounterMode = TIM_COUNTERMODE_UP;
 800240e:	6083      	str	r3, [r0, #8]
  htim8.Init.Period = 12;
 8002410:	220c      	movs	r2, #12
 8002412:	60c2      	str	r2, [r0, #12]
  htim8.Init.ClockDivision = TIM_CLOCKDIVISION_DIV1;
 8002414:	6103      	str	r3, [r0, #16]
  htim8.Init.RepetitionCounter = 0;
 8002416:	6143      	str	r3, [r0, #20]
  htim8.Init.AutoReloadPreload = TIM_AUTORELOAD_PRELOAD_DISABLE;
 8002418:	6183      	str	r3, [r0, #24]
  if (HAL_TIM_PWM_Init(&htim8) != HAL_OK)
 800241a:	f7fe ff96 	bl	800134a <HAL_TIM_PWM_Init>
 800241e:	2800      	cmp	r0, #0
 8002420:	d12a      	bne.n	8002478 <MX_TIM8_Init+0x78>
  sMasterConfig.MasterOutputTrigger = TIM_TRGO_RESET;
 8002422:	2300      	movs	r3, #0
 8002424:	930e      	str	r3, [sp, #56]	; 0x38
  sMasterConfig.MasterSlaveMode = TIM_MASTERSLAVEMODE_DISABLE;
 8002426:	930f      	str	r3, [sp, #60]	; 0x3c
  if (HAL_TIMEx_MasterConfigSynchronization(&htim8, &sMasterConfig) != HAL_OK)
 8002428:	a90e      	add	r1, sp, #56	; 0x38
 800242a:	481d      	ldr	r0, [pc, #116]	; (80024a0 <MX_TIM8_Init+0xa0>)
 800242c:	f7ff f8e2 	bl	80015f4 <HAL_TIMEx_MasterConfigSynchronization>
 8002430:	bb38      	cbnz	r0, 8002482 <MX_TIM8_Init+0x82>
  sConfigOC.OCMode = TIM_OCMODE_PWM1;
 8002432:	2360      	movs	r3, #96	; 0x60
 8002434:	9307      	str	r3, [sp, #28]
  sConfigOC.Pulse = 0;
 8002436:	2300      	movs	r3, #0
 8002438:	9308      	str	r3, [sp, #32]
  sConfigOC.OCPolarity = TIM_OCPOLARITY_HIGH;
 800243a:	9309      	str	r3, [sp, #36]	; 0x24
  sConfigOC.OCFastMode = TIM_OCFAST_DISABLE;
 800243c:	930b      	str	r3, [sp, #44]	; 0x2c
  sConfigOC.OCIdleState = TIM_OCIDLESTATE_RESET;
 800243e:	930c      	str	r3, [sp, #48]	; 0x30
  sConfigOC.OCNIdleState = TIM_OCNIDLESTATE_RESET;
 8002440:	930d      	str	r3, [sp, #52]	; 0x34
  if (HAL_TIM_PWM_ConfigChannel(&htim8, &sConfigOC, TIM_CHANNEL_4) != HAL_OK)
 8002442:	220c      	movs	r2, #12
 8002444:	a907      	add	r1, sp, #28
 8002446:	4816      	ldr	r0, [pc, #88]	; (80024a0 <MX_TIM8_Init+0xa0>)
 8002448:	f7fe ffd2 	bl	80013f0 <HAL_TIM_PWM_ConfigChannel>
 800244c:	b9f0      	cbnz	r0, 800248c <MX_TIM8_Init+0x8c>
  sBreakDeadTimeConfig.OffStateRunMode = TIM_OSSR_DISABLE;
 800244e:	2300      	movs	r3, #0
 8002450:	9300      	str	r3, [sp, #0]
  sBreakDeadTimeConfig.OffStateIDLEMode = TIM_OSSI_DISABLE;
 8002452:	9301      	str	r3, [sp, #4]
  sBreakDeadTimeConfig.LockLevel = TIM_LOCKLEVEL_OFF;
 8002454:	9302      	str	r3, [sp, #8]
  sBreakDeadTimeConfig.DeadTime = 0;
 8002456:	9303      	str	r3, [sp, #12]
  sBreakDeadTimeConfig.BreakState = TIM_BREAK_DISABLE;
 8002458:	9304      	str	r3, [sp, #16]
  sBreakDeadTimeConfig.BreakPolarity = TIM_BREAKPOLARITY_HIGH;
 800245a:	f44f 5200 	mov.w	r2, #8192	; 0x2000
 800245e:	9205      	str	r2, [sp, #20]
  sBreakDeadTimeConfig.AutomaticOutput = TIM_AUTOMATICOUTPUT_DISABLE;
 8002460:	9306      	str	r3, [sp, #24]
  if (HAL_TIMEx_ConfigBreakDeadTime(&htim8, &sBreakDeadTimeConfig) != HAL_OK)
 8002462:	4669      	mov	r1, sp
 8002464:	480e      	ldr	r0, [pc, #56]	; (80024a0 <MX_TIM8_Init+0xa0>)
 8002466:	f7ff f899 	bl	800159c <HAL_TIMEx_ConfigBreakDeadTime>
 800246a:	b9a0      	cbnz	r0, 8002496 <MX_TIM8_Init+0x96>
  HAL_TIM_MspPostInit(&htim8);
 800246c:	480c      	ldr	r0, [pc, #48]	; (80024a0 <MX_TIM8_Init+0xa0>)
 800246e:	f7ff ff07 	bl	8002280 <HAL_TIM_MspPostInit>
}
 8002472:	b011      	add	sp, #68	; 0x44
 8002474:	f85d fb04 	ldr.w	pc, [sp], #4
    _Error_Handler(__FILE__, __LINE__);
 8002478:	21ab      	movs	r1, #171	; 0xab
 800247a:	480b      	ldr	r0, [pc, #44]	; (80024a8 <MX_TIM8_Init+0xa8>)
 800247c:	f7ff fb10 	bl	8001aa0 <_Error_Handler>
 8002480:	e7cf      	b.n	8002422 <MX_TIM8_Init+0x22>
    _Error_Handler(__FILE__, __LINE__);
 8002482:	21b2      	movs	r1, #178	; 0xb2
 8002484:	4808      	ldr	r0, [pc, #32]	; (80024a8 <MX_TIM8_Init+0xa8>)
 8002486:	f7ff fb0b 	bl	8001aa0 <_Error_Handler>
 800248a:	e7d2      	b.n	8002432 <MX_TIM8_Init+0x32>
    _Error_Handler(__FILE__, __LINE__);
 800248c:	21bd      	movs	r1, #189	; 0xbd
 800248e:	4806      	ldr	r0, [pc, #24]	; (80024a8 <MX_TIM8_Init+0xa8>)
 8002490:	f7ff fb06 	bl	8001aa0 <_Error_Handler>
 8002494:	e7db      	b.n	800244e <MX_TIM8_Init+0x4e>
    _Error_Handler(__FILE__, __LINE__);
 8002496:	21c9      	movs	r1, #201	; 0xc9
 8002498:	4803      	ldr	r0, [pc, #12]	; (80024a8 <MX_TIM8_Init+0xa8>)
 800249a:	f7ff fb01 	bl	8001aa0 <_Error_Handler>
 800249e:	e7e5      	b.n	800246c <MX_TIM8_Init+0x6c>
 80024a0:	200000e8 	.word	0x200000e8
 80024a4:	40013400 	.word	0x40013400
 80024a8:	08002e34 	.word	0x08002e34

080024ac <MX_USART1_UART_Init>:
UART_HandleTypeDef huart1;

/* USART1 init function */

void MX_USART1_UART_Init(void)
{
 80024ac:	b508      	push	{r3, lr}

  huart1.Instance = USART1;
 80024ae:	480b      	ldr	r0, [pc, #44]	; (80024dc <MX_USART1_UART_Init+0x30>)
 80024b0:	4b0b      	ldr	r3, [pc, #44]	; (80024e0 <MX_USART1_UART_Init+0x34>)
 80024b2:	6003      	str	r3, [r0, #0]
  huart1.Init.BaudRate = 115200;
 80024b4:	f44f 33e1 	mov.w	r3, #115200	; 0x1c200
 80024b8:	6043      	str	r3, [r0, #4]
  huart1.Init.WordLength = UART_WORDLENGTH_8B;
 80024ba:	2300      	movs	r3, #0
 80024bc:	6083      	str	r3, [r0, #8]
  huart1.Init.StopBits = UART_STOPBITS_1;
 80024be:	60c3      	str	r3, [r0, #12]
  huart1.Init.Parity = UART_PARITY_NONE;
 80024c0:	6103      	str	r3, [r0, #16]
  huart1.Init.Mode = UART_MODE_TX_RX;
 80024c2:	220c      	movs	r2, #12
 80024c4:	6142      	str	r2, [r0, #20]
  huart1.Init.HwFlowCtl = UART_HWCONTROL_NONE;
 80024c6:	6183      	str	r3, [r0, #24]
  huart1.Init.OverSampling = UART_OVERSAMPLING_16;
 80024c8:	61c3      	str	r3, [r0, #28]
  if (HAL_UART_Init(&huart1) != HAL_OK)
 80024ca:	f7ff f995 	bl	80017f8 <HAL_UART_Init>
 80024ce:	b900      	cbnz	r0, 80024d2 <MX_USART1_UART_Init+0x26>
 80024d0:	bd08      	pop	{r3, pc}
  {
    _Error_Handler(__FILE__, __LINE__);
 80024d2:	2142      	movs	r1, #66	; 0x42
 80024d4:	4803      	ldr	r0, [pc, #12]	; (80024e4 <MX_USART1_UART_Init+0x38>)
 80024d6:	f7ff fae3 	bl	8001aa0 <_Error_Handler>
  }

}
 80024da:	e7f9      	b.n	80024d0 <MX_USART1_UART_Init+0x24>
 80024dc:	200001e8 	.word	0x200001e8
 80024e0:	40013800 	.word	0x40013800
 80024e4:	08002e44 	.word	0x08002e44

080024e8 <HAL_UART_MspInit>:

void HAL_UART_MspInit(UART_HandleTypeDef* uartHandle)
{

  GPIO_InitTypeDef GPIO_InitStruct;
  if(uartHandle->Instance==USART1)
 80024e8:	6802      	ldr	r2, [r0, #0]
 80024ea:	4b14      	ldr	r3, [pc, #80]	; (800253c <HAL_UART_MspInit+0x54>)
 80024ec:	429a      	cmp	r2, r3
 80024ee:	d000      	beq.n	80024f2 <HAL_UART_MspInit+0xa>
 80024f0:	4770      	bx	lr
{
 80024f2:	b510      	push	{r4, lr}
 80024f4:	b086      	sub	sp, #24
  {
  /* USER CODE BEGIN USART1_MspInit 0 */

  /* USER CODE END USART1_MspInit 0 */
    /* USART1 clock enable */
    __HAL_RCC_USART1_CLK_ENABLE();
 80024f6:	f503 4358 	add.w	r3, r3, #55296	; 0xd800
 80024fa:	699a      	ldr	r2, [r3, #24]
 80024fc:	f442 4280 	orr.w	r2, r2, #16384	; 0x4000
 8002500:	619a      	str	r2, [r3, #24]
 8002502:	699b      	ldr	r3, [r3, #24]
 8002504:	f403 4380 	and.w	r3, r3, #16384	; 0x4000
 8002508:	9301      	str	r3, [sp, #4]
 800250a:	9b01      	ldr	r3, [sp, #4]
  
    /**USART1 GPIO Configuration    
    PA9     ------> USART1_TX
    PA10     ------> USART1_RX 
    */
    GPIO_InitStruct.Pin = GPIO_PIN_9;
 800250c:	f44f 7300 	mov.w	r3, #512	; 0x200
 8002510:	9302      	str	r3, [sp, #8]
    GPIO_InitStruct.Mode = GPIO_MODE_AF_PP;
 8002512:	2302      	movs	r3, #2
 8002514:	9303      	str	r3, [sp, #12]
    GPIO_InitStruct.Speed = GPIO_SPEED_FREQ_HIGH;
 8002516:	2303      	movs	r3, #3
 8002518:	9305      	str	r3, [sp, #20]
    HAL_GPIO_Init(GPIOA, &GPIO_InitStruct);
 800251a:	4c09      	ldr	r4, [pc, #36]	; (8002540 <HAL_UART_MspInit+0x58>)
 800251c:	a902      	add	r1, sp, #8
 800251e:	4620      	mov	r0, r4
 8002520:	f7fe f8a4 	bl	800066c <HAL_GPIO_Init>

    GPIO_InitStruct.Pin = GPIO_PIN_10;
 8002524:	f44f 6380 	mov.w	r3, #1024	; 0x400
 8002528:	9302      	str	r3, [sp, #8]
    GPIO_InitStruct.Mode = GPIO_MODE_INPUT;
 800252a:	2300      	movs	r3, #0
 800252c:	9303      	str	r3, [sp, #12]
    GPIO_InitStruct.Pull = GPIO_NOPULL;
 800252e:	9304      	str	r3, [sp, #16]
    HAL_GPIO_Init(GPIOA, &GPIO_InitStruct);
 8002530:	a902      	add	r1, sp, #8
 8002532:	4620      	mov	r0, r4
 8002534:	f7fe f89a 	bl	800066c <HAL_GPIO_Init>

  /* USER CODE BEGIN USART1_MspInit 1 */

  /* USER CODE END USART1_MspInit 1 */
  }
}
 8002538:	b006      	add	sp, #24
 800253a:	bd10      	pop	{r4, pc}
 800253c:	40013800 	.word	0x40013800
 8002540:	40010800 	.word	0x40010800

08002544 <Reset_Handler>:
  .weak Reset_Handler
  .type Reset_Handler, %function
Reset_Handler:

/* Copy the data segment initializers from flash to SRAM */
  movs r1, #0
 8002544:	2100      	movs	r1, #0
  b LoopCopyDataInit
 8002546:	e003      	b.n	8002550 <LoopCopyDataInit>

08002548 <CopyDataInit>:

CopyDataInit:
  ldr r3, =_sidata
 8002548:	4b0b      	ldr	r3, [pc, #44]	; (8002578 <LoopFillZerobss+0x14>)
  ldr r3, [r3, r1]
 800254a:	585b      	ldr	r3, [r3, r1]
  str r3, [r0, r1]
 800254c:	5043      	str	r3, [r0, r1]
  adds r1, r1, #4
 800254e:	3104      	adds	r1, #4

08002550 <LoopCopyDataInit>:

LoopCopyDataInit:
  ldr r0, =_sdata
 8002550:	480a      	ldr	r0, [pc, #40]	; (800257c <LoopFillZerobss+0x18>)
  ldr r3, =_edata
 8002552:	4b0b      	ldr	r3, [pc, #44]	; (8002580 <LoopFillZerobss+0x1c>)
  adds r2, r0, r1
 8002554:	1842      	adds	r2, r0, r1
  cmp r2, r3
 8002556:	429a      	cmp	r2, r3
  bcc CopyDataInit
 8002558:	d3f6      	bcc.n	8002548 <CopyDataInit>
  ldr r2, =_sbss
 800255a:	4a0a      	ldr	r2, [pc, #40]	; (8002584 <LoopFillZerobss+0x20>)
  b LoopFillZerobss
 800255c:	e002      	b.n	8002564 <LoopFillZerobss>

0800255e <FillZerobss>:
/* Zero fill the bss segment. */
FillZerobss:
  movs r3, #0
 800255e:	2300      	movs	r3, #0
  str r3, [r2], #4
 8002560:	f842 3b04 	str.w	r3, [r2], #4

08002564 <LoopFillZerobss>:

LoopFillZerobss:
  ldr r3, = _ebss
 8002564:	4b08      	ldr	r3, [pc, #32]	; (8002588 <LoopFillZerobss+0x24>)
  cmp r2, r3
 8002566:	429a      	cmp	r2, r3
  bcc FillZerobss
 8002568:	d3f9      	bcc.n	800255e <FillZerobss>

/* Call the clock system intitialization function.*/
    bl  SystemInit
 800256a:	f7ff fddf 	bl	800212c <SystemInit>
/* Call static constructors */
    bl __libc_init_array
 800256e:	f000 f80f 	bl	8002590 <__libc_init_array>
/* Call the application's entry point.*/
  bl main
 8002572:	f7ff fae5 	bl	8001b40 <main>
  bx lr
 8002576:	4770      	bx	lr
  ldr r3, =_sidata
 8002578:	08002ec0 	.word	0x08002ec0
  ldr r0, =_sdata
 800257c:	20000000 	.word	0x20000000
  ldr r3, =_edata
 8002580:	20000070 	.word	0x20000070
  ldr r2, =_sbss
 8002584:	20000070 	.word	0x20000070
  ldr r3, = _ebss
 8002588:	2000022c 	.word	0x2000022c

0800258c <ADC1_2_IRQHandler>:
 * @retval : None
*/
    .section .text.Default_Handler,"ax",%progbits
Default_Handler:
Infinite_Loop:
  b Infinite_Loop
 800258c:	e7fe      	b.n	800258c <ADC1_2_IRQHandler>
	...

08002590 <__libc_init_array>:
 8002590:	b570      	push	{r4, r5, r6, lr}
 8002592:	2500      	movs	r5, #0
 8002594:	4e0c      	ldr	r6, [pc, #48]	; (80025c8 <__libc_init_array+0x38>)
 8002596:	4c0d      	ldr	r4, [pc, #52]	; (80025cc <__libc_init_array+0x3c>)
 8002598:	1ba4      	subs	r4, r4, r6
 800259a:	10a4      	asrs	r4, r4, #2
 800259c:	42a5      	cmp	r5, r4
 800259e:	d109      	bne.n	80025b4 <__libc_init_array+0x24>
 80025a0:	f000 fc0e 	bl	8002dc0 <_init>
 80025a4:	2500      	movs	r5, #0
 80025a6:	4e0a      	ldr	r6, [pc, #40]	; (80025d0 <__libc_init_array+0x40>)
 80025a8:	4c0a      	ldr	r4, [pc, #40]	; (80025d4 <__libc_init_array+0x44>)
 80025aa:	1ba4      	subs	r4, r4, r6
 80025ac:	10a4      	asrs	r4, r4, #2
 80025ae:	42a5      	cmp	r5, r4
 80025b0:	d105      	bne.n	80025be <__libc_init_array+0x2e>
 80025b2:	bd70      	pop	{r4, r5, r6, pc}
 80025b4:	f856 3025 	ldr.w	r3, [r6, r5, lsl #2]
 80025b8:	4798      	blx	r3
 80025ba:	3501      	adds	r5, #1
 80025bc:	e7ee      	b.n	800259c <__libc_init_array+0xc>
 80025be:	f856 3025 	ldr.w	r3, [r6, r5, lsl #2]
 80025c2:	4798      	blx	r3
 80025c4:	3501      	adds	r5, #1
 80025c6:	e7f2      	b.n	80025ae <__libc_init_array+0x1e>
 80025c8:	08002eb8 	.word	0x08002eb8
 80025cc:	08002eb8 	.word	0x08002eb8
 80025d0:	08002eb8 	.word	0x08002eb8
 80025d4:	08002ebc 	.word	0x08002ebc

080025d8 <setbuf>:
 80025d8:	2900      	cmp	r1, #0
 80025da:	f44f 6380 	mov.w	r3, #1024	; 0x400
 80025de:	bf0c      	ite	eq
 80025e0:	2202      	moveq	r2, #2
 80025e2:	2200      	movne	r2, #0
 80025e4:	f000 b800 	b.w	80025e8 <setvbuf>

080025e8 <setvbuf>:
 80025e8:	e92d 43f7 	stmdb	sp!, {r0, r1, r2, r4, r5, r6, r7, r8, r9, lr}
 80025ec:	461d      	mov	r5, r3
 80025ee:	4b51      	ldr	r3, [pc, #324]	; (8002734 <setvbuf+0x14c>)
 80025f0:	4604      	mov	r4, r0
 80025f2:	681e      	ldr	r6, [r3, #0]
 80025f4:	460f      	mov	r7, r1
 80025f6:	4690      	mov	r8, r2
 80025f8:	b126      	cbz	r6, 8002604 <setvbuf+0x1c>
 80025fa:	69b3      	ldr	r3, [r6, #24]
 80025fc:	b913      	cbnz	r3, 8002604 <setvbuf+0x1c>
 80025fe:	4630      	mov	r0, r6
 8002600:	f000 f992 	bl	8002928 <__sinit>
 8002604:	4b4c      	ldr	r3, [pc, #304]	; (8002738 <setvbuf+0x150>)
 8002606:	429c      	cmp	r4, r3
 8002608:	d152      	bne.n	80026b0 <setvbuf+0xc8>
 800260a:	6874      	ldr	r4, [r6, #4]
 800260c:	f1b8 0f02 	cmp.w	r8, #2
 8002610:	d006      	beq.n	8002620 <setvbuf+0x38>
 8002612:	f1b8 0f01 	cmp.w	r8, #1
 8002616:	f200 8089 	bhi.w	800272c <setvbuf+0x144>
 800261a:	2d00      	cmp	r5, #0
 800261c:	f2c0 8086 	blt.w	800272c <setvbuf+0x144>
 8002620:	4621      	mov	r1, r4
 8002622:	4630      	mov	r0, r6
 8002624:	f000 f916 	bl	8002854 <_fflush_r>
 8002628:	6b61      	ldr	r1, [r4, #52]	; 0x34
 800262a:	b141      	cbz	r1, 800263e <setvbuf+0x56>
 800262c:	f104 0344 	add.w	r3, r4, #68	; 0x44
 8002630:	4299      	cmp	r1, r3
 8002632:	d002      	beq.n	800263a <setvbuf+0x52>
 8002634:	4630      	mov	r0, r6
 8002636:	f000 fa35 	bl	8002aa4 <_free_r>
 800263a:	2300      	movs	r3, #0
 800263c:	6363      	str	r3, [r4, #52]	; 0x34
 800263e:	2300      	movs	r3, #0
 8002640:	61a3      	str	r3, [r4, #24]
 8002642:	6063      	str	r3, [r4, #4]
 8002644:	89a3      	ldrh	r3, [r4, #12]
 8002646:	061b      	lsls	r3, r3, #24
 8002648:	d503      	bpl.n	8002652 <setvbuf+0x6a>
 800264a:	6921      	ldr	r1, [r4, #16]
 800264c:	4630      	mov	r0, r6
 800264e:	f000 fa29 	bl	8002aa4 <_free_r>
 8002652:	89a3      	ldrh	r3, [r4, #12]
 8002654:	f1b8 0f02 	cmp.w	r8, #2
 8002658:	f423 634a 	bic.w	r3, r3, #3232	; 0xca0
 800265c:	f023 0303 	bic.w	r3, r3, #3
 8002660:	81a3      	strh	r3, [r4, #12]
 8002662:	d05d      	beq.n	8002720 <setvbuf+0x138>
 8002664:	ab01      	add	r3, sp, #4
 8002666:	466a      	mov	r2, sp
 8002668:	4621      	mov	r1, r4
 800266a:	4630      	mov	r0, r6
 800266c:	f000 f9e6 	bl	8002a3c <__swhatbuf_r>
 8002670:	89a3      	ldrh	r3, [r4, #12]
 8002672:	4318      	orrs	r0, r3
 8002674:	81a0      	strh	r0, [r4, #12]
 8002676:	bb2d      	cbnz	r5, 80026c4 <setvbuf+0xdc>
 8002678:	9d00      	ldr	r5, [sp, #0]
 800267a:	4628      	mov	r0, r5
 800267c:	f000 fa02 	bl	8002a84 <malloc>
 8002680:	4607      	mov	r7, r0
 8002682:	2800      	cmp	r0, #0
 8002684:	d14e      	bne.n	8002724 <setvbuf+0x13c>
 8002686:	f8dd 9000 	ldr.w	r9, [sp]
 800268a:	45a9      	cmp	r9, r5
 800268c:	d13c      	bne.n	8002708 <setvbuf+0x120>
 800268e:	f04f 30ff 	mov.w	r0, #4294967295
 8002692:	89a3      	ldrh	r3, [r4, #12]
 8002694:	f043 0302 	orr.w	r3, r3, #2
 8002698:	81a3      	strh	r3, [r4, #12]
 800269a:	2300      	movs	r3, #0
 800269c:	60a3      	str	r3, [r4, #8]
 800269e:	f104 0347 	add.w	r3, r4, #71	; 0x47
 80026a2:	6023      	str	r3, [r4, #0]
 80026a4:	6123      	str	r3, [r4, #16]
 80026a6:	2301      	movs	r3, #1
 80026a8:	6163      	str	r3, [r4, #20]
 80026aa:	b003      	add	sp, #12
 80026ac:	e8bd 83f0 	ldmia.w	sp!, {r4, r5, r6, r7, r8, r9, pc}
 80026b0:	4b22      	ldr	r3, [pc, #136]	; (800273c <setvbuf+0x154>)
 80026b2:	429c      	cmp	r4, r3
 80026b4:	d101      	bne.n	80026ba <setvbuf+0xd2>
 80026b6:	68b4      	ldr	r4, [r6, #8]
 80026b8:	e7a8      	b.n	800260c <setvbuf+0x24>
 80026ba:	4b21      	ldr	r3, [pc, #132]	; (8002740 <setvbuf+0x158>)
 80026bc:	429c      	cmp	r4, r3
 80026be:	bf08      	it	eq
 80026c0:	68f4      	ldreq	r4, [r6, #12]
 80026c2:	e7a3      	b.n	800260c <setvbuf+0x24>
 80026c4:	2f00      	cmp	r7, #0
 80026c6:	d0d8      	beq.n	800267a <setvbuf+0x92>
 80026c8:	69b3      	ldr	r3, [r6, #24]
 80026ca:	b913      	cbnz	r3, 80026d2 <setvbuf+0xea>
 80026cc:	4630      	mov	r0, r6
 80026ce:	f000 f92b 	bl	8002928 <__sinit>
 80026d2:	f1b8 0f01 	cmp.w	r8, #1
 80026d6:	bf08      	it	eq
 80026d8:	89a3      	ldrheq	r3, [r4, #12]
 80026da:	6027      	str	r7, [r4, #0]
 80026dc:	bf04      	itt	eq
 80026de:	f043 0301 	orreq.w	r3, r3, #1
 80026e2:	81a3      	strheq	r3, [r4, #12]
 80026e4:	89a3      	ldrh	r3, [r4, #12]
 80026e6:	6127      	str	r7, [r4, #16]
 80026e8:	f013 0008 	ands.w	r0, r3, #8
 80026ec:	6165      	str	r5, [r4, #20]
 80026ee:	d01b      	beq.n	8002728 <setvbuf+0x140>
 80026f0:	f013 0001 	ands.w	r0, r3, #1
 80026f4:	f04f 0300 	mov.w	r3, #0
 80026f8:	bf1f      	itttt	ne
 80026fa:	426d      	negne	r5, r5
 80026fc:	60a3      	strne	r3, [r4, #8]
 80026fe:	61a5      	strne	r5, [r4, #24]
 8002700:	4618      	movne	r0, r3
 8002702:	bf08      	it	eq
 8002704:	60a5      	streq	r5, [r4, #8]
 8002706:	e7d0      	b.n	80026aa <setvbuf+0xc2>
 8002708:	4648      	mov	r0, r9
 800270a:	f000 f9bb 	bl	8002a84 <malloc>
 800270e:	4607      	mov	r7, r0
 8002710:	2800      	cmp	r0, #0
 8002712:	d0bc      	beq.n	800268e <setvbuf+0xa6>
 8002714:	89a3      	ldrh	r3, [r4, #12]
 8002716:	464d      	mov	r5, r9
 8002718:	f043 0380 	orr.w	r3, r3, #128	; 0x80
 800271c:	81a3      	strh	r3, [r4, #12]
 800271e:	e7d3      	b.n	80026c8 <setvbuf+0xe0>
 8002720:	2000      	movs	r0, #0
 8002722:	e7b6      	b.n	8002692 <setvbuf+0xaa>
 8002724:	46a9      	mov	r9, r5
 8002726:	e7f5      	b.n	8002714 <setvbuf+0x12c>
 8002728:	60a0      	str	r0, [r4, #8]
 800272a:	e7be      	b.n	80026aa <setvbuf+0xc2>
 800272c:	f04f 30ff 	mov.w	r0, #4294967295
 8002730:	e7bb      	b.n	80026aa <setvbuf+0xc2>
 8002732:	bf00      	nop
 8002734:	2000000c 	.word	0x2000000c
 8002738:	08002e78 	.word	0x08002e78
 800273c:	08002e98 	.word	0x08002e98
 8002740:	08002e58 	.word	0x08002e58

08002744 <__sflush_r>:
 8002744:	898a      	ldrh	r2, [r1, #12]
 8002746:	e92d 41f0 	stmdb	sp!, {r4, r5, r6, r7, r8, lr}
 800274a:	4605      	mov	r5, r0
 800274c:	0710      	lsls	r0, r2, #28
 800274e:	460c      	mov	r4, r1
 8002750:	d45a      	bmi.n	8002808 <__sflush_r+0xc4>
 8002752:	684b      	ldr	r3, [r1, #4]
 8002754:	2b00      	cmp	r3, #0
 8002756:	dc05      	bgt.n	8002764 <__sflush_r+0x20>
 8002758:	6c0b      	ldr	r3, [r1, #64]	; 0x40
 800275a:	2b00      	cmp	r3, #0
 800275c:	dc02      	bgt.n	8002764 <__sflush_r+0x20>
 800275e:	2000      	movs	r0, #0
 8002760:	e8bd 81f0 	ldmia.w	sp!, {r4, r5, r6, r7, r8, pc}
 8002764:	6ae6      	ldr	r6, [r4, #44]	; 0x2c
 8002766:	2e00      	cmp	r6, #0
 8002768:	d0f9      	beq.n	800275e <__sflush_r+0x1a>
 800276a:	2300      	movs	r3, #0
 800276c:	f412 5280 	ands.w	r2, r2, #4096	; 0x1000
 8002770:	682f      	ldr	r7, [r5, #0]
 8002772:	602b      	str	r3, [r5, #0]
 8002774:	d033      	beq.n	80027de <__sflush_r+0x9a>
 8002776:	6d60      	ldr	r0, [r4, #84]	; 0x54
 8002778:	89a3      	ldrh	r3, [r4, #12]
 800277a:	075a      	lsls	r2, r3, #29
 800277c:	d505      	bpl.n	800278a <__sflush_r+0x46>
 800277e:	6863      	ldr	r3, [r4, #4]
 8002780:	1ac0      	subs	r0, r0, r3
 8002782:	6b63      	ldr	r3, [r4, #52]	; 0x34
 8002784:	b10b      	cbz	r3, 800278a <__sflush_r+0x46>
 8002786:	6c23      	ldr	r3, [r4, #64]	; 0x40
 8002788:	1ac0      	subs	r0, r0, r3
 800278a:	2300      	movs	r3, #0
 800278c:	4602      	mov	r2, r0
 800278e:	6ae6      	ldr	r6, [r4, #44]	; 0x2c
 8002790:	6a21      	ldr	r1, [r4, #32]
 8002792:	4628      	mov	r0, r5
 8002794:	47b0      	blx	r6
 8002796:	1c43      	adds	r3, r0, #1
 8002798:	89a3      	ldrh	r3, [r4, #12]
 800279a:	d106      	bne.n	80027aa <__sflush_r+0x66>
 800279c:	6829      	ldr	r1, [r5, #0]
 800279e:	291d      	cmp	r1, #29
 80027a0:	d84b      	bhi.n	800283a <__sflush_r+0xf6>
 80027a2:	4a2b      	ldr	r2, [pc, #172]	; (8002850 <__sflush_r+0x10c>)
 80027a4:	40ca      	lsrs	r2, r1
 80027a6:	07d6      	lsls	r6, r2, #31
 80027a8:	d547      	bpl.n	800283a <__sflush_r+0xf6>
 80027aa:	2200      	movs	r2, #0
 80027ac:	6062      	str	r2, [r4, #4]
 80027ae:	6922      	ldr	r2, [r4, #16]
 80027b0:	04d9      	lsls	r1, r3, #19
 80027b2:	6022      	str	r2, [r4, #0]
 80027b4:	d504      	bpl.n	80027c0 <__sflush_r+0x7c>
 80027b6:	1c42      	adds	r2, r0, #1
 80027b8:	d101      	bne.n	80027be <__sflush_r+0x7a>
 80027ba:	682b      	ldr	r3, [r5, #0]
 80027bc:	b903      	cbnz	r3, 80027c0 <__sflush_r+0x7c>
 80027be:	6560      	str	r0, [r4, #84]	; 0x54
 80027c0:	6b61      	ldr	r1, [r4, #52]	; 0x34
 80027c2:	602f      	str	r7, [r5, #0]
 80027c4:	2900      	cmp	r1, #0
 80027c6:	d0ca      	beq.n	800275e <__sflush_r+0x1a>
 80027c8:	f104 0344 	add.w	r3, r4, #68	; 0x44
 80027cc:	4299      	cmp	r1, r3
 80027ce:	d002      	beq.n	80027d6 <__sflush_r+0x92>
 80027d0:	4628      	mov	r0, r5
 80027d2:	f000 f967 	bl	8002aa4 <_free_r>
 80027d6:	2000      	movs	r0, #0
 80027d8:	6360      	str	r0, [r4, #52]	; 0x34
 80027da:	e8bd 81f0 	ldmia.w	sp!, {r4, r5, r6, r7, r8, pc}
 80027de:	6a21      	ldr	r1, [r4, #32]
 80027e0:	2301      	movs	r3, #1
 80027e2:	4628      	mov	r0, r5
 80027e4:	47b0      	blx	r6
 80027e6:	1c41      	adds	r1, r0, #1
 80027e8:	d1c6      	bne.n	8002778 <__sflush_r+0x34>
 80027ea:	682b      	ldr	r3, [r5, #0]
 80027ec:	2b00      	cmp	r3, #0
 80027ee:	d0c3      	beq.n	8002778 <__sflush_r+0x34>
 80027f0:	2b1d      	cmp	r3, #29
 80027f2:	d001      	beq.n	80027f8 <__sflush_r+0xb4>
 80027f4:	2b16      	cmp	r3, #22
 80027f6:	d101      	bne.n	80027fc <__sflush_r+0xb8>
 80027f8:	602f      	str	r7, [r5, #0]
 80027fa:	e7b0      	b.n	800275e <__sflush_r+0x1a>
 80027fc:	89a3      	ldrh	r3, [r4, #12]
 80027fe:	f043 0340 	orr.w	r3, r3, #64	; 0x40
 8002802:	81a3      	strh	r3, [r4, #12]
 8002804:	e8bd 81f0 	ldmia.w	sp!, {r4, r5, r6, r7, r8, pc}
 8002808:	690f      	ldr	r7, [r1, #16]
 800280a:	2f00      	cmp	r7, #0
 800280c:	d0a7      	beq.n	800275e <__sflush_r+0x1a>
 800280e:	0793      	lsls	r3, r2, #30
 8002810:	bf18      	it	ne
 8002812:	2300      	movne	r3, #0
 8002814:	680e      	ldr	r6, [r1, #0]
 8002816:	bf08      	it	eq
 8002818:	694b      	ldreq	r3, [r1, #20]
 800281a:	eba6 0807 	sub.w	r8, r6, r7
 800281e:	600f      	str	r7, [r1, #0]
 8002820:	608b      	str	r3, [r1, #8]
 8002822:	f1b8 0f00 	cmp.w	r8, #0
 8002826:	dd9a      	ble.n	800275e <__sflush_r+0x1a>
 8002828:	4643      	mov	r3, r8
 800282a:	463a      	mov	r2, r7
 800282c:	6a21      	ldr	r1, [r4, #32]
 800282e:	4628      	mov	r0, r5
 8002830:	6aa6      	ldr	r6, [r4, #40]	; 0x28
 8002832:	47b0      	blx	r6
 8002834:	2800      	cmp	r0, #0
 8002836:	dc07      	bgt.n	8002848 <__sflush_r+0x104>
 8002838:	89a3      	ldrh	r3, [r4, #12]
 800283a:	f043 0340 	orr.w	r3, r3, #64	; 0x40
 800283e:	81a3      	strh	r3, [r4, #12]
 8002840:	f04f 30ff 	mov.w	r0, #4294967295
 8002844:	e8bd 81f0 	ldmia.w	sp!, {r4, r5, r6, r7, r8, pc}
 8002848:	4407      	add	r7, r0
 800284a:	eba8 0800 	sub.w	r8, r8, r0
 800284e:	e7e8      	b.n	8002822 <__sflush_r+0xde>
 8002850:	20400001 	.word	0x20400001

08002854 <_fflush_r>:
 8002854:	b538      	push	{r3, r4, r5, lr}
 8002856:	690b      	ldr	r3, [r1, #16]
 8002858:	4605      	mov	r5, r0
 800285a:	460c      	mov	r4, r1
 800285c:	b1db      	cbz	r3, 8002896 <_fflush_r+0x42>
 800285e:	b118      	cbz	r0, 8002868 <_fflush_r+0x14>
 8002860:	6983      	ldr	r3, [r0, #24]
 8002862:	b90b      	cbnz	r3, 8002868 <_fflush_r+0x14>
 8002864:	f000 f860 	bl	8002928 <__sinit>
 8002868:	4b0c      	ldr	r3, [pc, #48]	; (800289c <_fflush_r+0x48>)
 800286a:	429c      	cmp	r4, r3
 800286c:	d109      	bne.n	8002882 <_fflush_r+0x2e>
 800286e:	686c      	ldr	r4, [r5, #4]
 8002870:	f9b4 300c 	ldrsh.w	r3, [r4, #12]
 8002874:	b17b      	cbz	r3, 8002896 <_fflush_r+0x42>
 8002876:	4621      	mov	r1, r4
 8002878:	4628      	mov	r0, r5
 800287a:	e8bd 4038 	ldmia.w	sp!, {r3, r4, r5, lr}
 800287e:	f7ff bf61 	b.w	8002744 <__sflush_r>
 8002882:	4b07      	ldr	r3, [pc, #28]	; (80028a0 <_fflush_r+0x4c>)
 8002884:	429c      	cmp	r4, r3
 8002886:	d101      	bne.n	800288c <_fflush_r+0x38>
 8002888:	68ac      	ldr	r4, [r5, #8]
 800288a:	e7f1      	b.n	8002870 <_fflush_r+0x1c>
 800288c:	4b05      	ldr	r3, [pc, #20]	; (80028a4 <_fflush_r+0x50>)
 800288e:	429c      	cmp	r4, r3
 8002890:	bf08      	it	eq
 8002892:	68ec      	ldreq	r4, [r5, #12]
 8002894:	e7ec      	b.n	8002870 <_fflush_r+0x1c>
 8002896:	2000      	movs	r0, #0
 8002898:	bd38      	pop	{r3, r4, r5, pc}
 800289a:	bf00      	nop
 800289c:	08002e78 	.word	0x08002e78
 80028a0:	08002e98 	.word	0x08002e98
 80028a4:	08002e58 	.word	0x08002e58

080028a8 <_cleanup_r>:
 80028a8:	4901      	ldr	r1, [pc, #4]	; (80028b0 <_cleanup_r+0x8>)
 80028aa:	f000 b8a9 	b.w	8002a00 <_fwalk_reent>
 80028ae:	bf00      	nop
 80028b0:	08002855 	.word	0x08002855

080028b4 <std.isra.0>:
 80028b4:	2300      	movs	r3, #0
 80028b6:	b510      	push	{r4, lr}
 80028b8:	4604      	mov	r4, r0
 80028ba:	6003      	str	r3, [r0, #0]
 80028bc:	6043      	str	r3, [r0, #4]
 80028be:	6083      	str	r3, [r0, #8]
 80028c0:	8181      	strh	r1, [r0, #12]
 80028c2:	6643      	str	r3, [r0, #100]	; 0x64
 80028c4:	81c2      	strh	r2, [r0, #14]
 80028c6:	6103      	str	r3, [r0, #16]
 80028c8:	6143      	str	r3, [r0, #20]
 80028ca:	6183      	str	r3, [r0, #24]
 80028cc:	4619      	mov	r1, r3
 80028ce:	2208      	movs	r2, #8
 80028d0:	305c      	adds	r0, #92	; 0x5c
 80028d2:	f000 f8df 	bl	8002a94 <memset>
 80028d6:	4b05      	ldr	r3, [pc, #20]	; (80028ec <std.isra.0+0x38>)
 80028d8:	6224      	str	r4, [r4, #32]
 80028da:	6263      	str	r3, [r4, #36]	; 0x24
 80028dc:	4b04      	ldr	r3, [pc, #16]	; (80028f0 <std.isra.0+0x3c>)
 80028de:	62a3      	str	r3, [r4, #40]	; 0x28
 80028e0:	4b04      	ldr	r3, [pc, #16]	; (80028f4 <std.isra.0+0x40>)
 80028e2:	62e3      	str	r3, [r4, #44]	; 0x2c
 80028e4:	4b04      	ldr	r3, [pc, #16]	; (80028f8 <std.isra.0+0x44>)
 80028e6:	6323      	str	r3, [r4, #48]	; 0x30
 80028e8:	bd10      	pop	{r4, pc}
 80028ea:	bf00      	nop
 80028ec:	08002c19 	.word	0x08002c19
 80028f0:	08002c3b 	.word	0x08002c3b
 80028f4:	08002c73 	.word	0x08002c73
 80028f8:	08002c97 	.word	0x08002c97

080028fc <__sfmoreglue>:
 80028fc:	b570      	push	{r4, r5, r6, lr}
 80028fe:	2568      	movs	r5, #104	; 0x68
 8002900:	1e4a      	subs	r2, r1, #1
 8002902:	4355      	muls	r5, r2
 8002904:	460e      	mov	r6, r1
 8002906:	f105 0174 	add.w	r1, r5, #116	; 0x74
 800290a:	f000 f917 	bl	8002b3c <_malloc_r>
 800290e:	4604      	mov	r4, r0
 8002910:	b140      	cbz	r0, 8002924 <__sfmoreglue+0x28>
 8002912:	2100      	movs	r1, #0
 8002914:	e880 0042 	stmia.w	r0, {r1, r6}
 8002918:	300c      	adds	r0, #12
 800291a:	60a0      	str	r0, [r4, #8]
 800291c:	f105 0268 	add.w	r2, r5, #104	; 0x68
 8002920:	f000 f8b8 	bl	8002a94 <memset>
 8002924:	4620      	mov	r0, r4
 8002926:	bd70      	pop	{r4, r5, r6, pc}

08002928 <__sinit>:
 8002928:	6983      	ldr	r3, [r0, #24]
 800292a:	b510      	push	{r4, lr}
 800292c:	4604      	mov	r4, r0
 800292e:	bb33      	cbnz	r3, 800297e <__sinit+0x56>
 8002930:	6483      	str	r3, [r0, #72]	; 0x48
 8002932:	64c3      	str	r3, [r0, #76]	; 0x4c
 8002934:	6503      	str	r3, [r0, #80]	; 0x50
 8002936:	4b12      	ldr	r3, [pc, #72]	; (8002980 <__sinit+0x58>)
 8002938:	4a12      	ldr	r2, [pc, #72]	; (8002984 <__sinit+0x5c>)
 800293a:	681b      	ldr	r3, [r3, #0]
 800293c:	6282      	str	r2, [r0, #40]	; 0x28
 800293e:	4298      	cmp	r0, r3
 8002940:	bf04      	itt	eq
 8002942:	2301      	moveq	r3, #1
 8002944:	6183      	streq	r3, [r0, #24]
 8002946:	f000 f81f 	bl	8002988 <__sfp>
 800294a:	6060      	str	r0, [r4, #4]
 800294c:	4620      	mov	r0, r4
 800294e:	f000 f81b 	bl	8002988 <__sfp>
 8002952:	60a0      	str	r0, [r4, #8]
 8002954:	4620      	mov	r0, r4
 8002956:	f000 f817 	bl	8002988 <__sfp>
 800295a:	2200      	movs	r2, #0
 800295c:	60e0      	str	r0, [r4, #12]
 800295e:	2104      	movs	r1, #4
 8002960:	6860      	ldr	r0, [r4, #4]
 8002962:	f7ff ffa7 	bl	80028b4 <std.isra.0>
 8002966:	2201      	movs	r2, #1
 8002968:	2109      	movs	r1, #9
 800296a:	68a0      	ldr	r0, [r4, #8]
 800296c:	f7ff ffa2 	bl	80028b4 <std.isra.0>
 8002970:	2202      	movs	r2, #2
 8002972:	2112      	movs	r1, #18
 8002974:	68e0      	ldr	r0, [r4, #12]
 8002976:	f7ff ff9d 	bl	80028b4 <std.isra.0>
 800297a:	2301      	movs	r3, #1
 800297c:	61a3      	str	r3, [r4, #24]
 800297e:	bd10      	pop	{r4, pc}
 8002980:	08002e54 	.word	0x08002e54
 8002984:	080028a9 	.word	0x080028a9

08002988 <__sfp>:
 8002988:	b5f8      	push	{r3, r4, r5, r6, r7, lr}
 800298a:	4b1c      	ldr	r3, [pc, #112]	; (80029fc <__sfp+0x74>)
 800298c:	4607      	mov	r7, r0
 800298e:	681e      	ldr	r6, [r3, #0]
 8002990:	69b3      	ldr	r3, [r6, #24]
 8002992:	b913      	cbnz	r3, 800299a <__sfp+0x12>
 8002994:	4630      	mov	r0, r6
 8002996:	f7ff ffc7 	bl	8002928 <__sinit>
 800299a:	3648      	adds	r6, #72	; 0x48
 800299c:	68b4      	ldr	r4, [r6, #8]
 800299e:	6873      	ldr	r3, [r6, #4]
 80029a0:	3b01      	subs	r3, #1
 80029a2:	d503      	bpl.n	80029ac <__sfp+0x24>
 80029a4:	6833      	ldr	r3, [r6, #0]
 80029a6:	b133      	cbz	r3, 80029b6 <__sfp+0x2e>
 80029a8:	6836      	ldr	r6, [r6, #0]
 80029aa:	e7f7      	b.n	800299c <__sfp+0x14>
 80029ac:	f9b4 500c 	ldrsh.w	r5, [r4, #12]
 80029b0:	b16d      	cbz	r5, 80029ce <__sfp+0x46>
 80029b2:	3468      	adds	r4, #104	; 0x68
 80029b4:	e7f4      	b.n	80029a0 <__sfp+0x18>
 80029b6:	2104      	movs	r1, #4
 80029b8:	4638      	mov	r0, r7
 80029ba:	f7ff ff9f 	bl	80028fc <__sfmoreglue>
 80029be:	6030      	str	r0, [r6, #0]
 80029c0:	2800      	cmp	r0, #0
 80029c2:	d1f1      	bne.n	80029a8 <__sfp+0x20>
 80029c4:	230c      	movs	r3, #12
 80029c6:	4604      	mov	r4, r0
 80029c8:	603b      	str	r3, [r7, #0]
 80029ca:	4620      	mov	r0, r4
 80029cc:	bdf8      	pop	{r3, r4, r5, r6, r7, pc}
 80029ce:	f64f 73ff 	movw	r3, #65535	; 0xffff
 80029d2:	81e3      	strh	r3, [r4, #14]
 80029d4:	2301      	movs	r3, #1
 80029d6:	6665      	str	r5, [r4, #100]	; 0x64
 80029d8:	81a3      	strh	r3, [r4, #12]
 80029da:	6025      	str	r5, [r4, #0]
 80029dc:	60a5      	str	r5, [r4, #8]
 80029de:	6065      	str	r5, [r4, #4]
 80029e0:	6125      	str	r5, [r4, #16]
 80029e2:	6165      	str	r5, [r4, #20]
 80029e4:	61a5      	str	r5, [r4, #24]
 80029e6:	2208      	movs	r2, #8
 80029e8:	4629      	mov	r1, r5
 80029ea:	f104 005c 	add.w	r0, r4, #92	; 0x5c
 80029ee:	f000 f851 	bl	8002a94 <memset>
 80029f2:	6365      	str	r5, [r4, #52]	; 0x34
 80029f4:	63a5      	str	r5, [r4, #56]	; 0x38
 80029f6:	64a5      	str	r5, [r4, #72]	; 0x48
 80029f8:	64e5      	str	r5, [r4, #76]	; 0x4c
 80029fa:	e7e6      	b.n	80029ca <__sfp+0x42>
 80029fc:	08002e54 	.word	0x08002e54

08002a00 <_fwalk_reent>:
 8002a00:	e92d 43f8 	stmdb	sp!, {r3, r4, r5, r6, r7, r8, r9, lr}
 8002a04:	4680      	mov	r8, r0
 8002a06:	4689      	mov	r9, r1
 8002a08:	2600      	movs	r6, #0
 8002a0a:	f100 0448 	add.w	r4, r0, #72	; 0x48
 8002a0e:	b914      	cbnz	r4, 8002a16 <_fwalk_reent+0x16>
 8002a10:	4630      	mov	r0, r6
 8002a12:	e8bd 83f8 	ldmia.w	sp!, {r3, r4, r5, r6, r7, r8, r9, pc}
 8002a16:	68a5      	ldr	r5, [r4, #8]
 8002a18:	6867      	ldr	r7, [r4, #4]
 8002a1a:	3f01      	subs	r7, #1
 8002a1c:	d501      	bpl.n	8002a22 <_fwalk_reent+0x22>
 8002a1e:	6824      	ldr	r4, [r4, #0]
 8002a20:	e7f5      	b.n	8002a0e <_fwalk_reent+0xe>
 8002a22:	89ab      	ldrh	r3, [r5, #12]
 8002a24:	2b01      	cmp	r3, #1
 8002a26:	d907      	bls.n	8002a38 <_fwalk_reent+0x38>
 8002a28:	f9b5 300e 	ldrsh.w	r3, [r5, #14]
 8002a2c:	3301      	adds	r3, #1
 8002a2e:	d003      	beq.n	8002a38 <_fwalk_reent+0x38>
 8002a30:	4629      	mov	r1, r5
 8002a32:	4640      	mov	r0, r8
 8002a34:	47c8      	blx	r9
 8002a36:	4306      	orrs	r6, r0
 8002a38:	3568      	adds	r5, #104	; 0x68
 8002a3a:	e7ee      	b.n	8002a1a <_fwalk_reent+0x1a>

08002a3c <__swhatbuf_r>:
 8002a3c:	b570      	push	{r4, r5, r6, lr}
 8002a3e:	460e      	mov	r6, r1
 8002a40:	f9b1 100e 	ldrsh.w	r1, [r1, #14]
 8002a44:	b090      	sub	sp, #64	; 0x40
 8002a46:	2900      	cmp	r1, #0
 8002a48:	4614      	mov	r4, r2
 8002a4a:	461d      	mov	r5, r3
 8002a4c:	da07      	bge.n	8002a5e <__swhatbuf_r+0x22>
 8002a4e:	2300      	movs	r3, #0
 8002a50:	602b      	str	r3, [r5, #0]
 8002a52:	89b3      	ldrh	r3, [r6, #12]
 8002a54:	061a      	lsls	r2, r3, #24
 8002a56:	d410      	bmi.n	8002a7a <__swhatbuf_r+0x3e>
 8002a58:	f44f 6380 	mov.w	r3, #1024	; 0x400
 8002a5c:	e00e      	b.n	8002a7c <__swhatbuf_r+0x40>
 8002a5e:	aa01      	add	r2, sp, #4
 8002a60:	f000 f940 	bl	8002ce4 <_fstat_r>
 8002a64:	2800      	cmp	r0, #0
 8002a66:	dbf2      	blt.n	8002a4e <__swhatbuf_r+0x12>
 8002a68:	9a02      	ldr	r2, [sp, #8]
 8002a6a:	f402 4270 	and.w	r2, r2, #61440	; 0xf000
 8002a6e:	f5a2 5300 	sub.w	r3, r2, #8192	; 0x2000
 8002a72:	425a      	negs	r2, r3
 8002a74:	415a      	adcs	r2, r3
 8002a76:	602a      	str	r2, [r5, #0]
 8002a78:	e7ee      	b.n	8002a58 <__swhatbuf_r+0x1c>
 8002a7a:	2340      	movs	r3, #64	; 0x40
 8002a7c:	2000      	movs	r0, #0
 8002a7e:	6023      	str	r3, [r4, #0]
 8002a80:	b010      	add	sp, #64	; 0x40
 8002a82:	bd70      	pop	{r4, r5, r6, pc}

08002a84 <malloc>:
 8002a84:	4b02      	ldr	r3, [pc, #8]	; (8002a90 <malloc+0xc>)
 8002a86:	4601      	mov	r1, r0
 8002a88:	6818      	ldr	r0, [r3, #0]
 8002a8a:	f000 b857 	b.w	8002b3c <_malloc_r>
 8002a8e:	bf00      	nop
 8002a90:	2000000c 	.word	0x2000000c

08002a94 <memset>:
 8002a94:	4603      	mov	r3, r0
 8002a96:	4402      	add	r2, r0
 8002a98:	4293      	cmp	r3, r2
 8002a9a:	d100      	bne.n	8002a9e <memset+0xa>
 8002a9c:	4770      	bx	lr
 8002a9e:	f803 1b01 	strb.w	r1, [r3], #1
 8002aa2:	e7f9      	b.n	8002a98 <memset+0x4>

08002aa4 <_free_r>:
 8002aa4:	b538      	push	{r3, r4, r5, lr}
 8002aa6:	4605      	mov	r5, r0
 8002aa8:	2900      	cmp	r1, #0
 8002aaa:	d043      	beq.n	8002b34 <_free_r+0x90>
 8002aac:	f851 3c04 	ldr.w	r3, [r1, #-4]
 8002ab0:	1f0c      	subs	r4, r1, #4
 8002ab2:	2b00      	cmp	r3, #0
 8002ab4:	bfb8      	it	lt
 8002ab6:	18e4      	addlt	r4, r4, r3
 8002ab8:	f000 f938 	bl	8002d2c <__malloc_lock>
 8002abc:	4a1e      	ldr	r2, [pc, #120]	; (8002b38 <_free_r+0x94>)
 8002abe:	6813      	ldr	r3, [r2, #0]
 8002ac0:	4610      	mov	r0, r2
 8002ac2:	b933      	cbnz	r3, 8002ad2 <_free_r+0x2e>
 8002ac4:	6063      	str	r3, [r4, #4]
 8002ac6:	6014      	str	r4, [r2, #0]
 8002ac8:	4628      	mov	r0, r5
 8002aca:	e8bd 4038 	ldmia.w	sp!, {r3, r4, r5, lr}
 8002ace:	f000 b92e 	b.w	8002d2e <__malloc_unlock>
 8002ad2:	42a3      	cmp	r3, r4
 8002ad4:	d90b      	bls.n	8002aee <_free_r+0x4a>
 8002ad6:	6821      	ldr	r1, [r4, #0]
 8002ad8:	1862      	adds	r2, r4, r1
 8002ada:	4293      	cmp	r3, r2
 8002adc:	bf01      	itttt	eq
 8002ade:	681a      	ldreq	r2, [r3, #0]
 8002ae0:	685b      	ldreq	r3, [r3, #4]
 8002ae2:	1852      	addeq	r2, r2, r1
 8002ae4:	6022      	streq	r2, [r4, #0]
 8002ae6:	6063      	str	r3, [r4, #4]
 8002ae8:	6004      	str	r4, [r0, #0]
 8002aea:	e7ed      	b.n	8002ac8 <_free_r+0x24>
 8002aec:	4613      	mov	r3, r2
 8002aee:	685a      	ldr	r2, [r3, #4]
 8002af0:	b10a      	cbz	r2, 8002af6 <_free_r+0x52>
 8002af2:	42a2      	cmp	r2, r4
 8002af4:	d9fa      	bls.n	8002aec <_free_r+0x48>
 8002af6:	6819      	ldr	r1, [r3, #0]
 8002af8:	1858      	adds	r0, r3, r1
 8002afa:	42a0      	cmp	r0, r4
 8002afc:	d10b      	bne.n	8002b16 <_free_r+0x72>
 8002afe:	6820      	ldr	r0, [r4, #0]
 8002b00:	4401      	add	r1, r0
 8002b02:	1858      	adds	r0, r3, r1
 8002b04:	4282      	cmp	r2, r0
 8002b06:	6019      	str	r1, [r3, #0]
 8002b08:	d1de      	bne.n	8002ac8 <_free_r+0x24>
 8002b0a:	6810      	ldr	r0, [r2, #0]
 8002b0c:	6852      	ldr	r2, [r2, #4]
 8002b0e:	4401      	add	r1, r0
 8002b10:	6019      	str	r1, [r3, #0]
 8002b12:	605a      	str	r2, [r3, #4]
 8002b14:	e7d8      	b.n	8002ac8 <_free_r+0x24>
 8002b16:	d902      	bls.n	8002b1e <_free_r+0x7a>
 8002b18:	230c      	movs	r3, #12
 8002b1a:	602b      	str	r3, [r5, #0]
 8002b1c:	e7d4      	b.n	8002ac8 <_free_r+0x24>
 8002b1e:	6820      	ldr	r0, [r4, #0]
 8002b20:	1821      	adds	r1, r4, r0
 8002b22:	428a      	cmp	r2, r1
 8002b24:	bf01      	itttt	eq
 8002b26:	6811      	ldreq	r1, [r2, #0]
 8002b28:	6852      	ldreq	r2, [r2, #4]
 8002b2a:	1809      	addeq	r1, r1, r0
 8002b2c:	6021      	streq	r1, [r4, #0]
 8002b2e:	6062      	str	r2, [r4, #4]
 8002b30:	605c      	str	r4, [r3, #4]
 8002b32:	e7c9      	b.n	8002ac8 <_free_r+0x24>
 8002b34:	bd38      	pop	{r3, r4, r5, pc}
 8002b36:	bf00      	nop
 8002b38:	2000008c 	.word	0x2000008c

08002b3c <_malloc_r>:
 8002b3c:	b570      	push	{r4, r5, r6, lr}
 8002b3e:	1ccd      	adds	r5, r1, #3
 8002b40:	f025 0503 	bic.w	r5, r5, #3
 8002b44:	3508      	adds	r5, #8
 8002b46:	2d0c      	cmp	r5, #12
 8002b48:	bf38      	it	cc
 8002b4a:	250c      	movcc	r5, #12
 8002b4c:	2d00      	cmp	r5, #0
 8002b4e:	4606      	mov	r6, r0
 8002b50:	db01      	blt.n	8002b56 <_malloc_r+0x1a>
 8002b52:	42a9      	cmp	r1, r5
 8002b54:	d903      	bls.n	8002b5e <_malloc_r+0x22>
 8002b56:	230c      	movs	r3, #12
 8002b58:	6033      	str	r3, [r6, #0]
 8002b5a:	2000      	movs	r0, #0
 8002b5c:	bd70      	pop	{r4, r5, r6, pc}
 8002b5e:	f000 f8e5 	bl	8002d2c <__malloc_lock>
 8002b62:	4a23      	ldr	r2, [pc, #140]	; (8002bf0 <_malloc_r+0xb4>)
 8002b64:	6814      	ldr	r4, [r2, #0]
 8002b66:	4621      	mov	r1, r4
 8002b68:	b991      	cbnz	r1, 8002b90 <_malloc_r+0x54>
 8002b6a:	4c22      	ldr	r4, [pc, #136]	; (8002bf4 <_malloc_r+0xb8>)
 8002b6c:	6823      	ldr	r3, [r4, #0]
 8002b6e:	b91b      	cbnz	r3, 8002b78 <_malloc_r+0x3c>
 8002b70:	4630      	mov	r0, r6
 8002b72:	f000 f841 	bl	8002bf8 <_sbrk_r>
 8002b76:	6020      	str	r0, [r4, #0]
 8002b78:	4629      	mov	r1, r5
 8002b7a:	4630      	mov	r0, r6
 8002b7c:	f000 f83c 	bl	8002bf8 <_sbrk_r>
 8002b80:	1c43      	adds	r3, r0, #1
 8002b82:	d126      	bne.n	8002bd2 <_malloc_r+0x96>
 8002b84:	230c      	movs	r3, #12
 8002b86:	4630      	mov	r0, r6
 8002b88:	6033      	str	r3, [r6, #0]
 8002b8a:	f000 f8d0 	bl	8002d2e <__malloc_unlock>
 8002b8e:	e7e4      	b.n	8002b5a <_malloc_r+0x1e>
 8002b90:	680b      	ldr	r3, [r1, #0]
 8002b92:	1b5b      	subs	r3, r3, r5
 8002b94:	d41a      	bmi.n	8002bcc <_malloc_r+0x90>
 8002b96:	2b0b      	cmp	r3, #11
 8002b98:	d90f      	bls.n	8002bba <_malloc_r+0x7e>
 8002b9a:	600b      	str	r3, [r1, #0]
 8002b9c:	18cc      	adds	r4, r1, r3
 8002b9e:	50cd      	str	r5, [r1, r3]
 8002ba0:	4630      	mov	r0, r6
 8002ba2:	f000 f8c4 	bl	8002d2e <__malloc_unlock>
 8002ba6:	f104 000b 	add.w	r0, r4, #11
 8002baa:	1d23      	adds	r3, r4, #4
 8002bac:	f020 0007 	bic.w	r0, r0, #7
 8002bb0:	1ac3      	subs	r3, r0, r3
 8002bb2:	d01b      	beq.n	8002bec <_malloc_r+0xb0>
 8002bb4:	425a      	negs	r2, r3
 8002bb6:	50e2      	str	r2, [r4, r3]
 8002bb8:	bd70      	pop	{r4, r5, r6, pc}
 8002bba:	428c      	cmp	r4, r1
 8002bbc:	bf0b      	itete	eq
 8002bbe:	6863      	ldreq	r3, [r4, #4]
 8002bc0:	684b      	ldrne	r3, [r1, #4]
 8002bc2:	6013      	streq	r3, [r2, #0]
 8002bc4:	6063      	strne	r3, [r4, #4]
 8002bc6:	bf18      	it	ne
 8002bc8:	460c      	movne	r4, r1
 8002bca:	e7e9      	b.n	8002ba0 <_malloc_r+0x64>
 8002bcc:	460c      	mov	r4, r1
 8002bce:	6849      	ldr	r1, [r1, #4]
 8002bd0:	e7ca      	b.n	8002b68 <_malloc_r+0x2c>
 8002bd2:	1cc4      	adds	r4, r0, #3
 8002bd4:	f024 0403 	bic.w	r4, r4, #3
 8002bd8:	42a0      	cmp	r0, r4
 8002bda:	d005      	beq.n	8002be8 <_malloc_r+0xac>
 8002bdc:	1a21      	subs	r1, r4, r0
 8002bde:	4630      	mov	r0, r6
 8002be0:	f000 f80a 	bl	8002bf8 <_sbrk_r>
 8002be4:	3001      	adds	r0, #1
 8002be6:	d0cd      	beq.n	8002b84 <_malloc_r+0x48>
 8002be8:	6025      	str	r5, [r4, #0]
 8002bea:	e7d9      	b.n	8002ba0 <_malloc_r+0x64>
 8002bec:	bd70      	pop	{r4, r5, r6, pc}
 8002bee:	bf00      	nop
 8002bf0:	2000008c 	.word	0x2000008c
 8002bf4:	20000090 	.word	0x20000090

08002bf8 <_sbrk_r>:
 8002bf8:	b538      	push	{r3, r4, r5, lr}
 8002bfa:	2300      	movs	r3, #0
 8002bfc:	4c05      	ldr	r4, [pc, #20]	; (8002c14 <_sbrk_r+0x1c>)
 8002bfe:	4605      	mov	r5, r0
 8002c00:	4608      	mov	r0, r1
 8002c02:	6023      	str	r3, [r4, #0]
 8002c04:	f000 f8c6 	bl	8002d94 <_sbrk>
 8002c08:	1c43      	adds	r3, r0, #1
 8002c0a:	d102      	bne.n	8002c12 <_sbrk_r+0x1a>
 8002c0c:	6823      	ldr	r3, [r4, #0]
 8002c0e:	b103      	cbz	r3, 8002c12 <_sbrk_r+0x1a>
 8002c10:	602b      	str	r3, [r5, #0]
 8002c12:	bd38      	pop	{r3, r4, r5, pc}
 8002c14:	20000228 	.word	0x20000228

08002c18 <__sread>:
 8002c18:	b510      	push	{r4, lr}
 8002c1a:	460c      	mov	r4, r1
 8002c1c:	f9b1 100e 	ldrsh.w	r1, [r1, #14]
 8002c20:	f000 f886 	bl	8002d30 <_read_r>
 8002c24:	2800      	cmp	r0, #0
 8002c26:	bfab      	itete	ge
 8002c28:	6d63      	ldrge	r3, [r4, #84]	; 0x54
 8002c2a:	89a3      	ldrhlt	r3, [r4, #12]
 8002c2c:	181b      	addge	r3, r3, r0
 8002c2e:	f423 5380 	biclt.w	r3, r3, #4096	; 0x1000
 8002c32:	bfac      	ite	ge
 8002c34:	6563      	strge	r3, [r4, #84]	; 0x54
 8002c36:	81a3      	strhlt	r3, [r4, #12]
 8002c38:	bd10      	pop	{r4, pc}

08002c3a <__swrite>:
 8002c3a:	e92d 41f0 	stmdb	sp!, {r4, r5, r6, r7, r8, lr}
 8002c3e:	461f      	mov	r7, r3
 8002c40:	898b      	ldrh	r3, [r1, #12]
 8002c42:	4605      	mov	r5, r0
 8002c44:	05db      	lsls	r3, r3, #23
 8002c46:	460c      	mov	r4, r1
 8002c48:	4616      	mov	r6, r2
 8002c4a:	d505      	bpl.n	8002c58 <__swrite+0x1e>
 8002c4c:	2302      	movs	r3, #2
 8002c4e:	2200      	movs	r2, #0
 8002c50:	f9b1 100e 	ldrsh.w	r1, [r1, #14]
 8002c54:	f000 f858 	bl	8002d08 <_lseek_r>
 8002c58:	89a3      	ldrh	r3, [r4, #12]
 8002c5a:	4632      	mov	r2, r6
 8002c5c:	f423 5380 	bic.w	r3, r3, #4096	; 0x1000
 8002c60:	81a3      	strh	r3, [r4, #12]
 8002c62:	f9b4 100e 	ldrsh.w	r1, [r4, #14]
 8002c66:	463b      	mov	r3, r7
 8002c68:	4628      	mov	r0, r5
 8002c6a:	e8bd 41f0 	ldmia.w	sp!, {r4, r5, r6, r7, r8, lr}
 8002c6e:	f000 b817 	b.w	8002ca0 <_write_r>

08002c72 <__sseek>:
 8002c72:	b510      	push	{r4, lr}
 8002c74:	460c      	mov	r4, r1
 8002c76:	f9b1 100e 	ldrsh.w	r1, [r1, #14]
 8002c7a:	f000 f845 	bl	8002d08 <_lseek_r>
 8002c7e:	1c43      	adds	r3, r0, #1
 8002c80:	89a3      	ldrh	r3, [r4, #12]
 8002c82:	bf15      	itete	ne
 8002c84:	6560      	strne	r0, [r4, #84]	; 0x54
 8002c86:	f423 5380 	biceq.w	r3, r3, #4096	; 0x1000
 8002c8a:	f443 5380 	orrne.w	r3, r3, #4096	; 0x1000
 8002c8e:	81a3      	strheq	r3, [r4, #12]
 8002c90:	bf18      	it	ne
 8002c92:	81a3      	strhne	r3, [r4, #12]
 8002c94:	bd10      	pop	{r4, pc}

08002c96 <__sclose>:
 8002c96:	f9b1 100e 	ldrsh.w	r1, [r1, #14]
 8002c9a:	f000 b813 	b.w	8002cc4 <_close_r>
	...

08002ca0 <_write_r>:
 8002ca0:	b538      	push	{r3, r4, r5, lr}
 8002ca2:	4605      	mov	r5, r0
 8002ca4:	4608      	mov	r0, r1
 8002ca6:	4611      	mov	r1, r2
 8002ca8:	2200      	movs	r2, #0
 8002caa:	4c05      	ldr	r4, [pc, #20]	; (8002cc0 <_write_r+0x20>)
 8002cac:	6022      	str	r2, [r4, #0]
 8002cae:	461a      	mov	r2, r3
 8002cb0:	f000 f87e 	bl	8002db0 <_write>
 8002cb4:	1c43      	adds	r3, r0, #1
 8002cb6:	d102      	bne.n	8002cbe <_write_r+0x1e>
 8002cb8:	6823      	ldr	r3, [r4, #0]
 8002cba:	b103      	cbz	r3, 8002cbe <_write_r+0x1e>
 8002cbc:	602b      	str	r3, [r5, #0]
 8002cbe:	bd38      	pop	{r3, r4, r5, pc}
 8002cc0:	20000228 	.word	0x20000228

08002cc4 <_close_r>:
 8002cc4:	b538      	push	{r3, r4, r5, lr}
 8002cc6:	2300      	movs	r3, #0
 8002cc8:	4c05      	ldr	r4, [pc, #20]	; (8002ce0 <_close_r+0x1c>)
 8002cca:	4605      	mov	r5, r0
 8002ccc:	4608      	mov	r0, r1
 8002cce:	6023      	str	r3, [r4, #0]
 8002cd0:	f000 f840 	bl	8002d54 <_close>
 8002cd4:	1c43      	adds	r3, r0, #1
 8002cd6:	d102      	bne.n	8002cde <_close_r+0x1a>
 8002cd8:	6823      	ldr	r3, [r4, #0]
 8002cda:	b103      	cbz	r3, 8002cde <_close_r+0x1a>
 8002cdc:	602b      	str	r3, [r5, #0]
 8002cde:	bd38      	pop	{r3, r4, r5, pc}
 8002ce0:	20000228 	.word	0x20000228

08002ce4 <_fstat_r>:
 8002ce4:	b538      	push	{r3, r4, r5, lr}
 8002ce6:	2300      	movs	r3, #0
 8002ce8:	4c06      	ldr	r4, [pc, #24]	; (8002d04 <_fstat_r+0x20>)
 8002cea:	4605      	mov	r5, r0
 8002cec:	4608      	mov	r0, r1
 8002cee:	4611      	mov	r1, r2
 8002cf0:	6023      	str	r3, [r4, #0]
 8002cf2:	f000 f837 	bl	8002d64 <_fstat>
 8002cf6:	1c43      	adds	r3, r0, #1
 8002cf8:	d102      	bne.n	8002d00 <_fstat_r+0x1c>
 8002cfa:	6823      	ldr	r3, [r4, #0]
 8002cfc:	b103      	cbz	r3, 8002d00 <_fstat_r+0x1c>
 8002cfe:	602b      	str	r3, [r5, #0]
 8002d00:	bd38      	pop	{r3, r4, r5, pc}
 8002d02:	bf00      	nop
 8002d04:	20000228 	.word	0x20000228

08002d08 <_lseek_r>:
 8002d08:	b538      	push	{r3, r4, r5, lr}
 8002d0a:	4605      	mov	r5, r0
 8002d0c:	4608      	mov	r0, r1
 8002d0e:	4611      	mov	r1, r2
 8002d10:	2200      	movs	r2, #0
 8002d12:	4c05      	ldr	r4, [pc, #20]	; (8002d28 <_lseek_r+0x20>)
 8002d14:	6022      	str	r2, [r4, #0]
 8002d16:	461a      	mov	r2, r3
 8002d18:	f000 f82c 	bl	8002d74 <_lseek>
 8002d1c:	1c43      	adds	r3, r0, #1
 8002d1e:	d102      	bne.n	8002d26 <_lseek_r+0x1e>
 8002d20:	6823      	ldr	r3, [r4, #0]
 8002d22:	b103      	cbz	r3, 8002d26 <_lseek_r+0x1e>
 8002d24:	602b      	str	r3, [r5, #0]
 8002d26:	bd38      	pop	{r3, r4, r5, pc}
 8002d28:	20000228 	.word	0x20000228

08002d2c <__malloc_lock>:
 8002d2c:	4770      	bx	lr

08002d2e <__malloc_unlock>:
 8002d2e:	4770      	bx	lr

08002d30 <_read_r>:
 8002d30:	b538      	push	{r3, r4, r5, lr}
 8002d32:	4605      	mov	r5, r0
 8002d34:	4608      	mov	r0, r1
 8002d36:	4611      	mov	r1, r2
 8002d38:	2200      	movs	r2, #0
 8002d3a:	4c05      	ldr	r4, [pc, #20]	; (8002d50 <_read_r+0x20>)
 8002d3c:	6022      	str	r2, [r4, #0]
 8002d3e:	461a      	mov	r2, r3
 8002d40:	f000 f820 	bl	8002d84 <_read>
 8002d44:	1c43      	adds	r3, r0, #1
 8002d46:	d102      	bne.n	8002d4e <_read_r+0x1e>
 8002d48:	6823      	ldr	r3, [r4, #0]
 8002d4a:	b103      	cbz	r3, 8002d4e <_read_r+0x1e>
 8002d4c:	602b      	str	r3, [r5, #0]
 8002d4e:	bd38      	pop	{r3, r4, r5, pc}
 8002d50:	20000228 	.word	0x20000228

08002d54 <_close>:
 8002d54:	2258      	movs	r2, #88	; 0x58
 8002d56:	4b02      	ldr	r3, [pc, #8]	; (8002d60 <_close+0xc>)
 8002d58:	f04f 30ff 	mov.w	r0, #4294967295
 8002d5c:	601a      	str	r2, [r3, #0]
 8002d5e:	4770      	bx	lr
 8002d60:	20000228 	.word	0x20000228

08002d64 <_fstat>:
 8002d64:	2258      	movs	r2, #88	; 0x58
 8002d66:	4b02      	ldr	r3, [pc, #8]	; (8002d70 <_fstat+0xc>)
 8002d68:	f04f 30ff 	mov.w	r0, #4294967295
 8002d6c:	601a      	str	r2, [r3, #0]
 8002d6e:	4770      	bx	lr
 8002d70:	20000228 	.word	0x20000228

08002d74 <_lseek>:
 8002d74:	2258      	movs	r2, #88	; 0x58
 8002d76:	4b02      	ldr	r3, [pc, #8]	; (8002d80 <_lseek+0xc>)
 8002d78:	f04f 30ff 	mov.w	r0, #4294967295
 8002d7c:	601a      	str	r2, [r3, #0]
 8002d7e:	4770      	bx	lr
 8002d80:	20000228 	.word	0x20000228

08002d84 <_read>:
 8002d84:	2258      	movs	r2, #88	; 0x58
 8002d86:	4b02      	ldr	r3, [pc, #8]	; (8002d90 <_read+0xc>)
 8002d88:	f04f 30ff 	mov.w	r0, #4294967295
 8002d8c:	601a      	str	r2, [r3, #0]
 8002d8e:	4770      	bx	lr
 8002d90:	20000228 	.word	0x20000228

08002d94 <_sbrk>:
 8002d94:	4b04      	ldr	r3, [pc, #16]	; (8002da8 <_sbrk+0x14>)
 8002d96:	4602      	mov	r2, r0
 8002d98:	6819      	ldr	r1, [r3, #0]
 8002d9a:	b909      	cbnz	r1, 8002da0 <_sbrk+0xc>
 8002d9c:	4903      	ldr	r1, [pc, #12]	; (8002dac <_sbrk+0x18>)
 8002d9e:	6019      	str	r1, [r3, #0]
 8002da0:	6818      	ldr	r0, [r3, #0]
 8002da2:	4402      	add	r2, r0
 8002da4:	601a      	str	r2, [r3, #0]
 8002da6:	4770      	bx	lr
 8002da8:	20000094 	.word	0x20000094
 8002dac:	20000230 	.word	0x20000230

08002db0 <_write>:
 8002db0:	2258      	movs	r2, #88	; 0x58
 8002db2:	4b02      	ldr	r3, [pc, #8]	; (8002dbc <_write+0xc>)
 8002db4:	f04f 30ff 	mov.w	r0, #4294967295
 8002db8:	601a      	str	r2, [r3, #0]
 8002dba:	4770      	bx	lr
 8002dbc:	20000228 	.word	0x20000228

08002dc0 <_init>:
 8002dc0:	b5f8      	push	{r3, r4, r5, r6, r7, lr}
 8002dc2:	bf00      	nop
 8002dc4:	bcf8      	pop	{r3, r4, r5, r6, r7}
 8002dc6:	bc08      	pop	{r3}
 8002dc8:	469e      	mov	lr, r3
 8002dca:	4770      	bx	lr

08002dcc <_fini>:
 8002dcc:	b5f8      	push	{r3, r4, r5, r6, r7, lr}
 8002dce:	bf00      	nop
 8002dd0:	bcf8      	pop	{r3, r4, r5, r6, r7}
 8002dd2:	bc08      	pop	{r3}
 8002dd4:	469e      	mov	lr, r3
 8002dd6:	4770      	bx	lr
